---
triple:          'arm64-apple-darwin'
binary-path:     '/Users/gditzler/Git/SPECTRA/.claude/worktrees/lucid-nobel/rust/target/debug/deps/lib_rust.dylib'
relocations:
  - { offset: 0x1E, size: 0x8, addend: 0x0, symName: __ZN4pyo33err10cast_error9CastError3new17h3edcbdcd2d5cae0dE, symObjAddr: 0x0, symBinAddr: 0x888, symSize: 0x1C }
  - { offset: 0x17C4, size: 0x8, addend: 0x0, symName: __ZN4pyo33err10cast_error9CastError3new17h3edcbdcd2d5cae0dE, symObjAddr: 0x0, symBinAddr: 0x888, symSize: 0x1C }
  - { offset: 0x1812, size: 0x8, addend: 0x0, symName: '__ZN50_$LT$T$u20$as$u20$core..convert..Into$LT$U$GT$$GT$4into17h5511c8b6c63e3e5bE', symObjAddr: 0x0, symBinAddr: 0x8A4, symSize: 0x24 }
  - { offset: 0x200C, size: 0x8, addend: 0x0, symName: '__ZN50_$LT$T$u20$as$u20$core..convert..Into$LT$U$GT$$GT$4into17h5511c8b6c63e3e5bE', symObjAddr: 0x0, symBinAddr: 0x8A4, symSize: 0x24 }
  - { offset: 0x2FD8, size: 0x8, addend: 0x0, symName: __ZN3std9panicking12catch_unwind7do_call17h286f9a6b4d1dfae7E, symObjAddr: 0x0, symBinAddr: 0x8C8, symSize: 0x78 }
  - { offset: 0x4D8F, size: 0x8, addend: 0x0, symName: __ZN3std9panicking12catch_unwind7do_call17h286f9a6b4d1dfae7E, symObjAddr: 0x0, symBinAddr: 0x8C8, symSize: 0x78 }
  - { offset: 0x4E76, size: 0x8, addend: 0x0, symName: __ZN3std9panicking12catch_unwind8do_catch17h33c07578bdcc5e93E, symObjAddr: 0x78, symBinAddr: 0x940, symSize: 0x70 }
  - { offset: 0x50D5, size: 0x8, addend: 0x0, symName: _PyInit__rust, symObjAddr: 0x0, symBinAddr: 0x9B0, symSize: 0x34 }
  - { offset: 0x50F9, size: 0x8, addend: 0x0, symName: __ZN5_rust5_rust9_PYO3_DEF17h40224cf451944e43E, symObjAddr: 0x130, symBinAddr: 0x742E0, symSize: 0x0 }
  - { offset: 0x5118, size: 0x8, addend: 0x0, symName: __ZN5_rust5_rust9_PYO3_DEF5SLOTS17h029f29951c60e6a3E, symObjAddr: 0x1B0, symBinAddr: 0x74360, symSize: 0x0 }
  - { offset: 0x5125, size: 0x8, addend: 0x0, symName: __ZN5_rust5_rust9_PYO3_DEF18__pyo3_module_exec17hc6fc0efc97ac574bE, symObjAddr: 0x6C, symBinAddr: 0xA1C, symSize: 0x3C }
  - { offset: 0x5152, size: 0x8, addend: 0x0, symName: _PyInit__rust, symObjAddr: 0x0, symBinAddr: 0x9B0, symSize: 0x34 }
  - { offset: 0x7520, size: 0x8, addend: 0x0, symName: '__ZN5_rust42_$LT$impl$u20$_rust.._rust..ModuleExec$GT$18__pyo3_module_exec17hd152ea3043011e9dE', symObjAddr: 0x34, symBinAddr: 0x9E4, symSize: 0x38 }
  - { offset: 0x7560, size: 0x8, addend: 0x0, symName: __ZN4pyo35impl_10trampoline11module_exec17h694ee58aa9ac53aeE, symObjAddr: 0x0, symBinAddr: 0xA58, symSize: 0x34 }
  - { offset: 0x899B, size: 0x8, addend: 0x0, symName: __ZN4pyo35impl_10trampoline11module_exec17h694ee58aa9ac53aeE, symObjAddr: 0x0, symBinAddr: 0xA58, symSize: 0x34 }
  - { offset: 0x92B6, size: 0x8, addend: 0x0, symName: __ZN4pyo36marker6Python15assume_attached17h5784971f47abb70cE, symObjAddr: 0x0, symBinAddr: 0xA8C, symSize: 0x4 }
  - { offset: 0x93F2, size: 0x8, addend: 0x0, symName: __ZN4pyo36marker6Python15assume_attached17h5784971f47abb70cE, symObjAddr: 0x0, symBinAddr: 0xA8C, symSize: 0x4 }
  - { offset: 0x9423, size: 0x8, addend: 0x0, symName: '__ZN4pyo38instance39Borrowed$LT$pyo3..types..any..PyAny$GT$15from_ptr_or_err17h62a6f6d20fcf626fE', symObjAddr: 0x0, symBinAddr: 0xA90, symSize: 0x38 }
  - { offset: 0xB0F1, size: 0x8, addend: 0x0, symName: '__ZN4pyo38instance39Borrowed$LT$pyo3..types..any..PyAny$GT$15from_ptr_or_err17h62a6f6d20fcf626fE', symObjAddr: 0x0, symBinAddr: 0xA90, symSize: 0x38 }
  - { offset: 0xB14D, size: 0x8, addend: 0x0, symName: __ZN4pyo35impl_10trampoline10trampoline17ha4ac3cb32d549752E, symObjAddr: 0x0, symBinAddr: 0xAC8, symSize: 0x158 }
  - { offset: 0xC752, size: 0x8, addend: 0x0, symName: __ZN4pyo35impl_10trampoline10trampoline17ha4ac3cb32d549752E, symObjAddr: 0x0, symBinAddr: 0xAC8, symSize: 0x158 }
  - { offset: 0xC800, size: 0x8, addend: 0x0, symName: '__ZN4pyo35impl_10trampoline10trampoline28_$u7b$$u7b$closure$u7d$$u7d$17h678020fc1d326f98E', symObjAddr: 0x158, symBinAddr: 0xC20, symSize: 0x2C }
  - { offset: 0xC857, size: 0x8, addend: 0x0, symName: '__ZN4pyo35impl_10trampoline11module_exec28_$u7b$$u7b$closure$u7d$$u7d$17h421f5c6b897a768fE', symObjAddr: 0x184, symBinAddr: 0xC4C, symSize: 0x1A4 }
  - { offset: 0xD3A7, size: 0x8, addend: 0x0, symName: '__ZN87_$LT$$BP$mut$u20$pyo3_ffi..object..PyObject$u20$as$u20$pyo3..ffi_ptr_ext..FfiPtrExt$GT$22assume_borrowed_or_err17h7a65e864530c5794E', symObjAddr: 0x0, symBinAddr: 0xDF0, symSize: 0x24 }
  - { offset: 0xE7CA, size: 0x8, addend: 0x0, symName: '__ZN87_$LT$$BP$mut$u20$pyo3_ffi..object..PyObject$u20$as$u20$pyo3..ffi_ptr_ext..FfiPtrExt$GT$22assume_borrowed_or_err17h7a65e864530c5794E', symObjAddr: 0x0, symBinAddr: 0xDF0, symSize: 0x24 }
  - { offset: 0xF0C9, size: 0x8, addend: 0x0, symName: __ZN5_rust5_rust17ha2c97763272ae1c5E, symObjAddr: 0x0, symBinAddr: 0xE14, symSize: 0xC8 }
  - { offset: 0x1057D, size: 0x8, addend: 0x0, symName: __ZN5_rust5_rust17ha2c97763272ae1c5E, symObjAddr: 0x0, symBinAddr: 0xE14, symSize: 0xC8 }
  - { offset: 0x10E95, size: 0x8, addend: 0x0, symName: __ZN4pyo38internal5state11AttachGuard6python17h0be029e6f83db1d6E, symObjAddr: 0x0, symBinAddr: 0xEDC, symSize: 0x20 }
  - { offset: 0x10F4B, size: 0x8, addend: 0x0, symName: __ZN4pyo38internal5state11AttachGuard6python17h0be029e6f83db1d6E, symObjAddr: 0x0, symBinAddr: 0xEDC, symSize: 0x20 }
  - { offset: 0x10F8B, size: 0x8, addend: 0x0, symName: '__ZN153_$LT$core..result..Result$LT$T$C$F$GT$$u20$as$u20$core..ops..try_trait..FromResidual$LT$core..result..Result$LT$core..convert..Infallible$C$E$GT$$GT$$GT$13from_residual17hba9da059586d2492E', symObjAddr: 0x0, symBinAddr: 0xEFC, symSize: 0x6C }
  - { offset: 0x1177E, size: 0x8, addend: 0x0, symName: '__ZN153_$LT$core..result..Result$LT$T$C$F$GT$$u20$as$u20$core..ops..try_trait..FromResidual$LT$core..result..Result$LT$core..convert..Infallible$C$E$GT$$GT$$GT$13from_residual17hba9da059586d2492E', symObjAddr: 0x0, symBinAddr: 0xEFC, symSize: 0x6C }
  - { offset: 0x117EB, size: 0x8, addend: 0x0, symName: '__ZN79_$LT$core..result..Result$LT$T$C$E$GT$$u20$as$u20$core..ops..try_trait..Try$GT$6branch17h0629ee64405c24aeE', symObjAddr: 0x6C, symBinAddr: 0xF68, symSize: 0x68 }
  - { offset: 0x13000, size: 0x8, addend: 0x0, symName: __ZN4pyo35impl_5panic9PanicTrap3new17h30edf29b15e814a2E, symObjAddr: 0x0, symBinAddr: 0xFD0, symSize: 0x18 }
  - { offset: 0x1308F, size: 0x8, addend: 0x0, symName: __ZN4pyo35impl_5panic9PanicTrap3new17h30edf29b15e814a2E, symObjAddr: 0x0, symBinAddr: 0xFD0, symSize: 0x18 }
  - { offset: 0x130B1, size: 0x8, addend: 0x0, symName: __ZN4pyo35impl_5panic9PanicTrap6disarm17h0c24af218763278dE, symObjAddr: 0x18, symBinAddr: 0xFE8, symSize: 0x28 }
  - { offset: 0x130F1, size: 0x8, addend: 0x0, symName: '__ZN115_$LT$pyo3..instance..Bound$LT$pyo3..types..module..PyModule$GT$$u20$as$u20$pyo3..types..module..PyModuleMethods$GT$3add17h42d7b91828afe649E', symObjAddr: 0x0, symBinAddr: 0x1010, symSize: 0x278 }
  - { offset: 0x146B7, size: 0x8, addend: 0x0, symName: '__ZN115_$LT$pyo3..instance..Bound$LT$pyo3..types..module..PyModule$GT$$u20$as$u20$pyo3..types..module..PyModuleMethods$GT$3add17h42d7b91828afe649E', symObjAddr: 0x0, symBinAddr: 0x1010, symSize: 0x278 }
  - { offset: 0x147E1, size: 0x8, addend: 0x0, symName: '__ZN4pyo35impl_9pymethods133_$LT$impl$u20$core..convert..From$LT$pyo3..impl_..pymethods..BoundRef$LT$T$GT$$GT$$u20$for$u20$$RF$pyo3..instance..Bound$LT$T$GT$$GT$4from17h3d2e7c4a169c275bE', symObjAddr: 0x278, symBinAddr: 0x1288, symSize: 0x14 }
  - { offset: 0x1495A, size: 0x8, addend: 0x0, symName: '__ZN4pyo38instance17Borrowed$LT$T$GT$4cast5inner17hc3dc978c80eed05dE', symObjAddr: 0x2BC, symBinAddr: 0x12CC, symSize: 0x7C }
  - { offset: 0x15065, size: 0x8, addend: 0x0, symName: '__ZN4pyo38instance17Borrowed$LT$T$GT$4cast17h797c22d00fb2ab28E', symObjAddr: 0x28C, symBinAddr: 0x129C, symSize: 0x30 }
  - { offset: 0x152E0, size: 0x8, addend: 0x0, symName: __ZN3std5panic12catch_unwind17hed3296b65c4b6140E, symObjAddr: 0x0, symBinAddr: 0x1348, symSize: 0xC0 }
  - { offset: 0x16A3C, size: 0x8, addend: 0x0, symName: __ZN3std5panic12catch_unwind17hed3296b65c4b6140E, symObjAddr: 0x0, symBinAddr: 0x1348, symSize: 0xC0 }
  - { offset: 0x18E06, size: 0x8, addend: 0x0, symName: '__ZN4core5array4iter94_$LT$impl$u20$core..iter..traits..collect..IntoIterator$u20$for$u20$$u5b$T$u3b$$u20$N$u5d$$GT$9into_iter17h57b6df203ab8f86dE', symObjAddr: 0x6CA0, symBinAddr: 0x29CC, symSize: 0x58 }
  - { offset: 0x1AFEC, size: 0x8, addend: 0x0, symName: '__ZN50_$LT$T$u20$as$u20$core..convert..Into$LT$U$GT$$GT$4into17h93cc8ea3e513dde3E', symObjAddr: 0xE3A8, symBinAddr: 0x4718, symSize: 0x24 }
  - { offset: 0x1B02C, size: 0x8, addend: 0x0, symName: '__ZN50_$LT$T$u20$as$u20$core..convert..Into$LT$U$GT$$GT$4into17hc528197e341244ccE', symObjAddr: 0xE3F0, symBinAddr: 0x473C, symSize: 0x24 }
  - { offset: 0x1B094, size: 0x8, addend: 0x0, symName: '__ZN103_$LT$pyo3..instance..Bound$LT$pyo3..types..any..PyAny$GT$$u20$as$u20$pyo3..types..any..PyAnyMethods$GT$2is17h59af4dd67f7bdb5aE', symObjAddr: 0x1A8, symBinAddr: 0x1478, symSize: 0xA4 }
  - { offset: 0x1B100, size: 0x8, addend: 0x0, symName: '__ZN103_$LT$pyo3..instance..Bound$LT$pyo3..types..any..PyAny$GT$$u20$as$u20$pyo3..types..any..PyAnyMethods$GT$3str17h1f2cc3e6ea28efa6E', symObjAddr: 0xBCC, symBinAddr: 0x151C, symSize: 0x5C }
  - { offset: 0x1B12E, size: 0x8, addend: 0x0, symName: '__ZN103_$LT$pyo3..instance..Bound$LT$pyo3..types..any..PyAny$GT$$u20$as$u20$pyo3..types..any..PyAnyMethods$GT$4repr17h4908c8d62f2ec94dE', symObjAddr: 0x10A8, symBinAddr: 0x1578, symSize: 0x5C }
  - { offset: 0x1B15C, size: 0x8, addend: 0x0, symName: '__ZN103_$LT$pyo3..instance..Bound$LT$pyo3..types..any..PyAny$GT$$u20$as$u20$pyo3..types..any..PyAnyMethods$GT$5call017h84d80b900ae08e04E', symObjAddr: 0x1104, symBinAddr: 0x15D4, symSize: 0x4C }
  - { offset: 0x1B18A, size: 0x8, addend: 0x0, symName: '__ZN103_$LT$pyo3..instance..Bound$LT$pyo3..types..any..PyAny$GT$$u20$as$u20$pyo3..types..any..PyAnyMethods$GT$7getattr17h2f1748aefe7b24f4E', symObjAddr: 0x1538, symBinAddr: 0x1620, symSize: 0x148 }
  - { offset: 0x1B210, size: 0x8, addend: 0x0, symName: '__ZN103_$LT$pyo3..instance..Bound$LT$pyo3..types..any..PyAny$GT$$u20$as$u20$pyo3..types..any..PyAnyMethods$GT$7is_none17h85980511c35169b6E', symObjAddr: 0x1930, symBinAddr: 0x1768, symSize: 0x4C }
  - { offset: 0x1B264, size: 0x8, addend: 0x0, symName: '__ZN103_$LT$pyo3..instance..Bound$LT$pyo3..types..any..PyAny$GT$$u20$as$u20$pyo3..types..any..PyAnyMethods$GT$7setattr17h143b3dc6c938e5ddE', symObjAddr: 0x197C, symBinAddr: 0x17B4, symSize: 0x234 }
  - { offset: 0x1B331, size: 0x8, addend: 0x0, symName: '__ZN103_$LT$pyo3..instance..Bound$LT$pyo3..types..any..PyAny$GT$$u20$as$u20$pyo3..types..any..PyAnyMethods$GT$7setattr17h2c8b4c6bba698940E', symObjAddr: 0x1BB0, symBinAddr: 0x19E8, symSize: 0x234 }
  - { offset: 0x1B3FE, size: 0x8, addend: 0x0, symName: '__ZN103_$LT$pyo3..instance..Bound$LT$pyo3..types..any..PyAny$GT$$u20$as$u20$pyo3..types..any..PyAnyMethods$GT$8get_type17ha1207a73255e4ce1E', symObjAddr: 0x2090, symBinAddr: 0x1C1C, symSize: 0x38 }
  - { offset: 0x1B4D1, size: 0x8, addend: 0x0, symName: '__ZN107_$LT$pyo3..instance..Bound$LT$pyo3..types..list..PyList$GT$$u20$as$u20$pyo3..types..list..PyListMethods$GT$6append17h7e3e2592c307324eE', symObjAddr: 0x2F10, symBinAddr: 0x1C78, symSize: 0x14C }
  - { offset: 0x1B568, size: 0x8, addend: 0x0, symName: '__ZN111_$LT$pyo3..instance..Bound$LT$pyo3..types..bytes..PyBytes$GT$$u20$as$u20$pyo3..types..bytes..PyBytesMethods$GT$8as_bytes17h53c23253d924100bE', symObjAddr: 0x31FC, symBinAddr: 0x1DC4, symSize: 0x28 }
  - { offset: 0x1B606, size: 0x8, addend: 0x0, symName: '__ZN111_$LT$pyo3..instance..Bound$LT$pyo3..types..tuple..PyTuple$GT$$u20$as$u20$pyo3..types..tuple..PyTupleMethods$GT$3len17h8939381a011f5245E', symObjAddr: 0x37B0, symBinAddr: 0x1DEC, symSize: 0x2C }
  - { offset: 0x1B632, size: 0x8, addend: 0x0, symName: '__ZN111_$LT$pyo3..instance..Bound$LT$pyo3..types..tuple..PyTuple$GT$$u20$as$u20$pyo3..types..tuple..PyTupleMethods$GT$4iter17h6e350bc5b3c0516aE', symObjAddr: 0x37DC, symBinAddr: 0x1E18, symSize: 0x30 }
  - { offset: 0x1B74A, size: 0x8, addend: 0x0, symName: '__ZN115_$LT$pyo3..instance..Bound$LT$pyo3..types..module..PyModule$GT$$u20$as$u20$pyo3..types..module..PyModuleMethods$GT$5index17hed05685bf91783fcE', symObjAddr: 0x47F0, symBinAddr: 0x1E48, symSize: 0x25C }
  - { offset: 0x1B81D, size: 0x8, addend: 0x0, symName: '__ZN115_$LT$pyo3..instance..Bound$LT$pyo3..types..string..PyString$GT$$u20$as$u20$pyo3..types..string..PyStringMethods$GT$15to_string_lossy17h675cbd474477c712E', symObjAddr: 0x4B1C, symBinAddr: 0x20A4, symSize: 0x30 }
  - { offset: 0x1B84B, size: 0x8, addend: 0x0, symName: '__ZN115_$LT$pyo3..instance..Bound$LT$pyo3..types..string..PyString$GT$$u20$as$u20$pyo3..types..string..PyStringMethods$GT$6to_cow17h7702ef3684edc9c6E', symObjAddr: 0x4B7C, symBinAddr: 0x20D4, symSize: 0x30 }
  - { offset: 0x1B96A, size: 0x8, addend: 0x0, symName: '__ZN119_$LT$pyo3..instance..Bound$LT$pyo3..types..typeobject..PyType$GT$$u20$as$u20$pyo3..types..typeobject..PyTypeMethods$GT$11as_type_ptr17h2084fbf3fef50da6E', symObjAddr: 0x53C8, symBinAddr: 0x2104, symSize: 0x24 }
  - { offset: 0x1B996, size: 0x8, addend: 0x0, symName: '__ZN119_$LT$pyo3..instance..Bound$LT$pyo3..types..typeobject..PyType$GT$$u20$as$u20$pyo3..types..typeobject..PyTypeMethods$GT$4name17h89e69a3df96cdd2fE', symObjAddr: 0x5A68, symBinAddr: 0x2128, symSize: 0xE0 }
  - { offset: 0x1B9FF, size: 0x8, addend: 0x0, symName: '__ZN119_$LT$pyo3..instance..Bound$LT$pyo3..types..typeobject..PyType$GT$$u20$as$u20$pyo3..types..typeobject..PyTypeMethods$GT$8qualname17h074d15d6628d06aaE', symObjAddr: 0x5D34, symBinAddr: 0x2208, symSize: 0xE0 }
  - { offset: 0x1BADA, size: 0x8, addend: 0x0, symName: '__ZN127_$LT$pyo3..instance..Bound$LT$pyo3..types..traceback..PyTraceback$GT$$u20$as$u20$pyo3..types..traceback..PyTracebackMethods$GT$6format17hc0d2ec24050db6dfE', symObjAddr: 0x60BC, symBinAddr: 0x22E8, symSize: 0x670 }
  - { offset: 0x1BE0E, size: 0x8, addend: 0x0, symName: '__ZN105_$LT$pyo3..instance..Py$LT$T$GT$$u20$as$u20$core..convert..From$LT$pyo3..instance..Bound$LT$T$GT$$GT$$GT$4from17h511d80c2b4ce0c43E', symObjAddr: 0x2310, symBinAddr: 0x1C54, symSize: 0x24 }
  - { offset: 0x1BE4B, size: 0x8, addend: 0x0, symName: '__ZN127_$LT$pyo3..instance..Py$LT$pyo3..types..any..PyAny$GT$$u20$as$u20$core..convert..From$LT$pyo3..instance..Bound$LT$T$GT$$GT$$GT$4from17hf1a04f768fb8eb09E', symObjAddr: 0x672C, symBinAddr: 0x2958, symSize: 0x28 }
  - { offset: 0x1BE88, size: 0x8, addend: 0x0, symName: '__ZN128_$LT$pyo3..instance..Bound$LT$T$GT$$u20$as$u20$core..convert..AsRef$LT$pyo3..instance..Py$LT$pyo3..types..any..PyAny$GT$$GT$$GT$6as_ref17he9fa76d7a2145d09E', symObjAddr: 0x6754, symBinAddr: 0x2980, symSize: 0x28 }
  - { offset: 0x1E89A, size: 0x8, addend: 0x0, symName: __ZN4pyo38instance13panic_on_null17hf4909c85c56243e9E, symObjAddr: 0xA6A4, symBinAddr: 0x4A7F8, symSize: 0x84 }
  - { offset: 0x1E8EF, size: 0x8, addend: 0x0, symName: __ZN4pyo38instance13python_format17hb1f97593608617f9E, symObjAddr: 0xA728, symBinAddr: 0x3434, symSize: 0x2F8 }
  - { offset: 0x1FBDF, size: 0x8, addend: 0x0, symName: '__ZN4pyo38instance14Bound$LT$T$GT$4cast5inner17h0527d5cb83445f6fE', symObjAddr: 0xB690, symBinAddr: 0x3B50, symSize: 0x84 }
  - { offset: 0x1FC14, size: 0x8, addend: 0x0, symName: '__ZN4pyo38instance14Bound$LT$T$GT$4cast5inner17h9852920b906b10e9E', symObjAddr: 0xB798, symBinAddr: 0x3BD4, symSize: 0x84 }
  - { offset: 0x1FC49, size: 0x8, addend: 0x0, symName: '__ZN4pyo38instance14Bound$LT$T$GT$4cast5inner17heaf59d75a1b7c9aeE', symObjAddr: 0xB81C, symBinAddr: 0x3C58, symSize: 0x84 }
  - { offset: 0x1FC84, size: 0x8, addend: 0x0, symName: '__ZN4pyo38instance14Bound$LT$T$GT$9cast_into5inner17hb213354422a83923E', symObjAddr: 0xD030, symBinAddr: 0x4214, symSize: 0xFC }
  - { offset: 0x1FE64, size: 0x8, addend: 0x0, symName: '__ZN4pyo38instance36Bound$LT$pyo3..types..any..PyAny$GT$14from_owned_ptr28_$u7b$$u7b$closure$u7d$$u7d$17h261605141202dd24E', symObjAddr: 0xDF5C, symBinAddr: 0x44E8, symSize: 0x1C }
  - { offset: 0x1FEB7, size: 0x8, addend: 0x0, symName: '__ZN4pyo38instance36Bound$LT$pyo3..types..any..PyAny$GT$21from_owned_ptr_or_opt28_$u7b$$u7b$closure$u7d$$u7d$17he5891ab91e4d0e7cE', symObjAddr: 0xE0B0, symBinAddr: 0x4604, symSize: 0x38 }
  - { offset: 0x1FF1F, size: 0x8, addend: 0x0, symName: '__ZN4pyo38instance39Borrowed$LT$pyo3..types..any..PyAny$GT$15from_ptr_or_err28_$u7b$$u7b$closure$u7d$$u7d$17hb4df77af64e30028E', symObjAddr: 0xE16C, symBinAddr: 0x4650, symSize: 0x40 }
  - { offset: 0x1FF68, size: 0x8, addend: 0x0, symName: '__ZN4pyo38instance39Borrowed$LT$pyo3..types..any..PyAny$GT$15from_ptr_or_err28_$u7b$$u7b$closure$u7d$$u7d$17hee1974a0f8f279e9E', symObjAddr: 0xE1AC, symBinAddr: 0x4690, symSize: 0x58 }
  - { offset: 0x1FFCF, size: 0x8, addend: 0x0, symName: '__ZN67_$LT$pyo3..instance..Bound$LT$T$GT$$u20$as$u20$core..fmt..Debug$GT$3fmt17h61595a66830669beE', symObjAddr: 0xE4A0, symBinAddr: 0x4760, symSize: 0x54 }
  - { offset: 0x20033, size: 0x8, addend: 0x0, symName: '__ZN67_$LT$pyo3..instance..Bound$LT$T$GT$$u20$as$u20$core..fmt..Debug$GT$3fmt17h69b6f39448480fd4E', symObjAddr: 0xE4F4, symBinAddr: 0x47B4, symSize: 0x54 }
  - { offset: 0x20097, size: 0x8, addend: 0x0, symName: '__ZN67_$LT$pyo3..instance..Bound$LT$T$GT$$u20$as$u20$core..fmt..Debug$GT$3fmt17hb2001b94ccab4ecfE', symObjAddr: 0xE548, symBinAddr: 0x4808, symSize: 0x54 }
  - { offset: 0x20101, size: 0x8, addend: 0x0, symName: '__ZN69_$LT$pyo3..instance..Bound$LT$T$GT$$u20$as$u20$core..clone..Clone$GT$5clone17h2f755f79f1c5c888E', symObjAddr: 0xE604, symBinAddr: 0x485C, symSize: 0x34 }
  - { offset: 0x20138, size: 0x8, addend: 0x0, symName: '__ZN69_$LT$pyo3..instance..Bound$LT$T$GT$$u20$as$u20$core..clone..Clone$GT$5clone17hb01b03119e61a889E', symObjAddr: 0xE770, symBinAddr: 0x4890, symSize: 0x34 }
  - { offset: 0x2016F, size: 0x8, addend: 0x0, symName: '__ZN69_$LT$pyo3..instance..Bound$LT$T$GT$$u20$as$u20$core..clone..Clone$GT$5clone17hff18ed9a7a0b5c27E', symObjAddr: 0xE7D8, symBinAddr: 0x48C4, symSize: 0x34 }
  - { offset: 0x201AC, size: 0x8, addend: 0x0, symName: '__ZN69_$LT$pyo3..instance..Bound$LT$T$GT$$u20$as$u20$core..fmt..Display$GT$3fmt17hb9382a7b48bdbd4bE', symObjAddr: 0xE860, symBinAddr: 0x48F8, symSize: 0x54 }
  - { offset: 0x20210, size: 0x8, addend: 0x0, symName: '__ZN69_$LT$pyo3..instance..Bound$LT$T$GT$$u20$as$u20$core..fmt..Display$GT$3fmt17hf015b0c051a56d58E', symObjAddr: 0xE908, symBinAddr: 0x494C, symSize: 0x54 }
  - { offset: 0x2027A, size: 0x8, addend: 0x0, symName: '__ZN69_$LT$pyo3..instance..Py$LT$T$GT$$u20$as$u20$core..ops..drop..Drop$GT$4drop17h34045f85f12e35b4E', symObjAddr: 0xE95C, symBinAddr: 0x49A0, symSize: 0x28 }
  - { offset: 0x202AD, size: 0x8, addend: 0x0, symName: '__ZN69_$LT$pyo3..instance..Py$LT$T$GT$$u20$as$u20$core..ops..drop..Drop$GT$4drop17h56bd3828b892a04bE', symObjAddr: 0xE984, symBinAddr: 0x49C8, symSize: 0x28 }
  - { offset: 0x202E0, size: 0x8, addend: 0x0, symName: '__ZN69_$LT$pyo3..instance..Py$LT$T$GT$$u20$as$u20$core..ops..drop..Drop$GT$4drop17h841c7d7419fdcd29E', symObjAddr: 0xE9FC, symBinAddr: 0x49F0, symSize: 0x28 }
  - { offset: 0x20313, size: 0x8, addend: 0x0, symName: '__ZN69_$LT$pyo3..instance..Py$LT$T$GT$$u20$as$u20$core..ops..drop..Drop$GT$4drop17hbb6c27c82b84fefcE', symObjAddr: 0xEA24, symBinAddr: 0x4A18, symSize: 0x28 }
  - { offset: 0x2034B, size: 0x8, addend: 0x0, symName: '__ZN69_$LT$pyo3..instance..Py$LT$T$GT$$u20$as$u20$core..ops..drop..Drop$GT$4drop5inner17h98ed826680dc74f8E', symObjAddr: 0xEA4C, symBinAddr: 0x4A40, symSize: 0x1D4 }
  - { offset: 0x203C6, size: 0x8, addend: 0x0, symName: '__ZN69_$LT$pyo3..instance..Py$LT$T$GT$$u20$as$u20$core..ops..drop..Drop$GT$4drop9drop_slow17h7bd04eaa8c0f1164E', symObjAddr: 0xEC20, symBinAddr: 0x4A87C, symSize: 0x24 }
  - { offset: 0x203F7, size: 0x8, addend: 0x0, symName: '__ZN72_$LT$pyo3..instance..Bound$LT$T$GT$$u20$as$u20$core..ops..drop..Drop$GT$4drop17h2878eeeeaffa0bd0E', symObjAddr: 0xEC78, symBinAddr: 0x4C14, symSize: 0x1A0 }
  - { offset: 0x20466, size: 0x8, addend: 0x0, symName: '__ZN72_$LT$pyo3..instance..Bound$LT$T$GT$$u20$as$u20$core..ops..drop..Drop$GT$4drop17h2dd61da3fda55bb1E', symObjAddr: 0xEE18, symBinAddr: 0x4DB4, symSize: 0x1A0 }
  - { offset: 0x204D5, size: 0x8, addend: 0x0, symName: '__ZN72_$LT$pyo3..instance..Bound$LT$T$GT$$u20$as$u20$core..ops..drop..Drop$GT$4drop17h2ddd5afab6ae2ff8E', symObjAddr: 0xEFB8, symBinAddr: 0x4F54, symSize: 0x1A0 }
  - { offset: 0x20544, size: 0x8, addend: 0x0, symName: '__ZN72_$LT$pyo3..instance..Bound$LT$T$GT$$u20$as$u20$core..ops..drop..Drop$GT$4drop17h56988c19c38cb3f4E', symObjAddr: 0xF2F8, symBinAddr: 0x50F4, symSize: 0x1A0 }
  - { offset: 0x205B3, size: 0x8, addend: 0x0, symName: '__ZN72_$LT$pyo3..instance..Bound$LT$T$GT$$u20$as$u20$core..ops..drop..Drop$GT$4drop17h82ba05042134579bE', symObjAddr: 0xF638, symBinAddr: 0x5294, symSize: 0x1A0 }
  - { offset: 0x20622, size: 0x8, addend: 0x0, symName: '__ZN72_$LT$pyo3..instance..Bound$LT$T$GT$$u20$as$u20$core..ops..drop..Drop$GT$4drop17hc03fd224a1d06183E', symObjAddr: 0x10198, symBinAddr: 0x5434, symSize: 0x1A0 }
  - { offset: 0x20691, size: 0x8, addend: 0x0, symName: '__ZN72_$LT$pyo3..instance..Bound$LT$T$GT$$u20$as$u20$core..ops..drop..Drop$GT$4drop17hf6dec8b00f6f2170E', symObjAddr: 0x10678, symBinAddr: 0x55D4, symSize: 0x1A0 }
  - { offset: 0x20700, size: 0x8, addend: 0x0, symName: '__ZN72_$LT$pyo3..instance..Bound$LT$T$GT$$u20$as$u20$core..ops..drop..Drop$GT$4drop17hf85dc43911866fa0E', symObjAddr: 0x10818, symBinAddr: 0x5774, symSize: 0x1A0 }
  - { offset: 0x2076F, size: 0x8, addend: 0x0, symName: '__ZN72_$LT$pyo3..instance..Bound$LT$T$GT$$u20$as$u20$core..ops..drop..Drop$GT$4drop17hfe51f90fc88f998cE', symObjAddr: 0x10B58, symBinAddr: 0x5914, symSize: 0x1A0 }
  - { offset: 0x207E4, size: 0x8, addend: 0x0, symName: '__ZN74_$LT$pyo3..instance..Bound$LT$T$GT$$u20$as$u20$core..ops..deref..Deref$GT$5deref17h1f151017302603d0E', symObjAddr: 0x10D40, symBinAddr: 0x5AB4, symSize: 0x24 }
  - { offset: 0x2081B, size: 0x8, addend: 0x0, symName: '__ZN74_$LT$pyo3..instance..Bound$LT$T$GT$$u20$as$u20$core..ops..deref..Deref$GT$5deref17h3d2ca4cca73b0a61E', symObjAddr: 0x10D64, symBinAddr: 0x5AD8, symSize: 0x24 }
  - { offset: 0x20852, size: 0x8, addend: 0x0, symName: '__ZN74_$LT$pyo3..instance..Bound$LT$T$GT$$u20$as$u20$core..ops..deref..Deref$GT$5deref17haeac50a184c045a1E', symObjAddr: 0x10E84, symBinAddr: 0x5AFC, symSize: 0x24 }
  - { offset: 0x20889, size: 0x8, addend: 0x0, symName: '__ZN74_$LT$pyo3..instance..Bound$LT$T$GT$$u20$as$u20$core..ops..deref..Deref$GT$5deref17hf413fd00f817cac7E', symObjAddr: 0x10ECC, symBinAddr: 0x5B20, symSize: 0x24 }
  - { offset: 0x208C6, size: 0x8, addend: 0x0, symName: '__ZN77_$LT$pyo3..instance..Borrowed$LT$T$GT$$u20$as$u20$core..ops..deref..Deref$GT$5deref17h1307e07042be0353E', symObjAddr: 0x10EF0, symBinAddr: 0x5B44, symSize: 0x28 }
  - { offset: 0x208FD, size: 0x8, addend: 0x0, symName: '__ZN77_$LT$pyo3..instance..Borrowed$LT$T$GT$$u20$as$u20$core..ops..deref..Deref$GT$5deref17h62d258e92cbb6379E', symObjAddr: 0x10F90, symBinAddr: 0x5B6C, symSize: 0x28 }
  - { offset: 0x20934, size: 0x8, addend: 0x0, symName: '__ZN77_$LT$pyo3..instance..Borrowed$LT$T$GT$$u20$as$u20$core..ops..deref..Deref$GT$5deref17h9087b44514d1f3dcE', symObjAddr: 0x11080, symBinAddr: 0x5B94, symSize: 0x28 }
  - { offset: 0x2096B, size: 0x8, addend: 0x0, symName: '__ZN77_$LT$pyo3..instance..Borrowed$LT$T$GT$$u20$as$u20$core..ops..deref..Deref$GT$5deref17h9b6a0420fdcab558E', symObjAddr: 0x110A8, symBinAddr: 0x5BBC, symSize: 0x28 }
  - { offset: 0x209A2, size: 0x8, addend: 0x0, symName: '__ZN77_$LT$pyo3..instance..Borrowed$LT$T$GT$$u20$as$u20$core..ops..deref..Deref$GT$5deref17hddc4ae5916883c24E', symObjAddr: 0x110F8, symBinAddr: 0x5BE4, symSize: 0x28 }
  - { offset: 0x209DF, size: 0x8, addend: 0x0, symName: '__ZN87_$LT$pyo3..instance..Bound$LT$T$GT$$u20$as$u20$pyo3..instance..BoundObject$LT$T$GT$$GT$10into_bound17h7018812698028521E', symObjAddr: 0x11344, symBinAddr: 0x5C7C, symSize: 0x14 }
  - { offset: 0x20A16, size: 0x8, addend: 0x0, symName: '__ZN87_$LT$pyo3..instance..Bound$LT$T$GT$$u20$as$u20$pyo3..instance..BoundObject$LT$T$GT$$GT$11as_borrowed17h16405027b088ebf8E', symObjAddr: 0x11358, symBinAddr: 0x5C90, symSize: 0x24 }
  - { offset: 0x20A4D, size: 0x8, addend: 0x0, symName: '__ZN87_$LT$pyo3..instance..Bound$LT$T$GT$$u20$as$u20$pyo3..instance..BoundObject$LT$T$GT$$GT$11as_borrowed17h7005ff27ce5163fcE', symObjAddr: 0x1137C, symBinAddr: 0x5CB4, symSize: 0x24 }
  - { offset: 0x20A84, size: 0x8, addend: 0x0, symName: '__ZN87_$LT$pyo3..instance..Bound$LT$T$GT$$u20$as$u20$pyo3..instance..BoundObject$LT$T$GT$$GT$6unbind17h1cd093e133e4ae2aE', symObjAddr: 0x113C4, symBinAddr: 0x5CD8, symSize: 0x24 }
  - { offset: 0x20ABB, size: 0x8, addend: 0x0, symName: '__ZN87_$LT$pyo3..instance..Bound$LT$T$GT$$u20$as$u20$pyo3..instance..BoundObject$LT$T$GT$$GT$8into_any17h16423cb267f05cf9E', symObjAddr: 0x113E8, symBinAddr: 0x5CFC, symSize: 0x24 }
  - { offset: 0x20AF2, size: 0x8, addend: 0x0, symName: '__ZN87_$LT$pyo3..instance..Bound$LT$T$GT$$u20$as$u20$pyo3..instance..BoundObject$LT$T$GT$$GT$8into_any17h813230e75b49e329E', symObjAddr: 0x11454, symBinAddr: 0x5D20, symSize: 0x24 }
  - { offset: 0x20B2F, size: 0x8, addend: 0x0, symName: '__ZN90_$LT$pyo3..instance..Borrowed$LT$T$GT$$u20$as$u20$pyo3..instance..BoundObject$LT$T$GT$$GT$11as_borrowed17h0caf433096027ea8E', symObjAddr: 0x11534, symBinAddr: 0x5D44, symSize: 0x18 }
  - { offset: 0x20B66, size: 0x8, addend: 0x0, symName: '__ZN90_$LT$pyo3..instance..Borrowed$LT$T$GT$$u20$as$u20$pyo3..instance..BoundObject$LT$T$GT$$GT$11as_borrowed17h626d30ed564f90bbE', symObjAddr: 0x1154C, symBinAddr: 0x5D5C, symSize: 0x18 }
  - { offset: 0x20B9D, size: 0x8, addend: 0x0, symName: '__ZN90_$LT$pyo3..instance..Borrowed$LT$T$GT$$u20$as$u20$pyo3..instance..BoundObject$LT$T$GT$$GT$6as_ptr17h82178e29543de010E', symObjAddr: 0x11564, symBinAddr: 0x5D74, symSize: 0x28 }
  - { offset: 0x20BD4, size: 0x8, addend: 0x0, symName: '__ZN90_$LT$pyo3..instance..Borrowed$LT$T$GT$$u20$as$u20$pyo3..instance..BoundObject$LT$T$GT$$GT$8into_any17h2a92bc7bd30ab153E', symObjAddr: 0x1158C, symBinAddr: 0x5D9C, symSize: 0x24 }
  - { offset: 0x20C0B, size: 0x8, addend: 0x0, symName: '__ZN90_$LT$pyo3..instance..Borrowed$LT$T$GT$$u20$as$u20$pyo3..instance..BoundObject$LT$T$GT$$GT$8into_any17h65d1a892d49bd5e8E', symObjAddr: 0x115F8, symBinAddr: 0x5DC0, symSize: 0x24 }
  - { offset: 0x20C42, size: 0x8, addend: 0x0, symName: '__ZN90_$LT$pyo3..instance..Borrowed$LT$T$GT$$u20$as$u20$pyo3..instance..BoundObject$LT$T$GT$$GT$8into_any17hf2fc4897e843a68dE', symObjAddr: 0x11688, symBinAddr: 0x5DE4, symSize: 0x24 }
  - { offset: 0x20E5F, size: 0x8, addend: 0x0, symName: __ZN4pyo310conversion15IntoPyObjectExt22into_pyobject_or_pyerr17h13f589508f149c20E, symObjAddr: 0x6F58, symBinAddr: 0x2A24, symSize: 0x48 }
  - { offset: 0x20ECF, size: 0x8, addend: 0x0, symName: __ZN4pyo310conversion15IntoPyObjectExt22into_pyobject_or_pyerr17h2e9da43be1325a39E, symObjAddr: 0x6FA0, symBinAddr: 0x2A6C, symSize: 0x48 }
  - { offset: 0x20F3F, size: 0x8, addend: 0x0, symName: __ZN4pyo310conversion15IntoPyObjectExt22into_pyobject_or_pyerr17h42dd11d884421b8fE, symObjAddr: 0x6FE8, symBinAddr: 0x2AB4, symSize: 0x48 }
  - { offset: 0x20FAF, size: 0x8, addend: 0x0, symName: __ZN4pyo310conversion15IntoPyObjectExt22into_pyobject_or_pyerr17hc7c119dd43c4106eE, symObjAddr: 0x7228, symBinAddr: 0x2AFC, symSize: 0x48 }
  - { offset: 0x21025, size: 0x8, addend: 0x0, symName: '__ZN84_$LT$pyo3..instance..Borrowed$LT$T$GT$$u20$as$u20$pyo3..conversion..IntoPyObject$GT$13into_pyobject17h4b77732c4184391dE', symObjAddr: 0x1120C, symBinAddr: 0x5C0C, symSize: 0x14 }
  - { offset: 0x21073, size: 0x8, addend: 0x0, symName: '__ZN84_$LT$pyo3..instance..Borrowed$LT$T$GT$$u20$as$u20$pyo3..conversion..IntoPyObject$GT$13into_pyobject17hb404b3dcec525241E', symObjAddr: 0x11234, symBinAddr: 0x5C20, symSize: 0x14 }
  - { offset: 0x210C7, size: 0x8, addend: 0x0, symName: '__ZN85_$LT$$RF$pyo3..instance..Bound$LT$T$GT$$u20$as$u20$pyo3..conversion..IntoPyObject$GT$13into_pyobject17h92cb35d741b15920E', symObjAddr: 0x1126C, symBinAddr: 0x5C34, symSize: 0x24 }
  - { offset: 0x21115, size: 0x8, addend: 0x0, symName: '__ZN85_$LT$$RF$pyo3..instance..Bound$LT$T$GT$$u20$as$u20$pyo3..conversion..IntoPyObject$GT$13into_pyobject17h9d3991a8a95d66d3E', symObjAddr: 0x11290, symBinAddr: 0x5C58, symSize: 0x24 }
  - { offset: 0x216DB, size: 0x8, addend: 0x0, symName: '__ZN44_$LT$T$u20$as$u20$alloc..borrow..ToOwned$GT$8to_owned17ha05cecb8662a3ee6E', symObjAddr: 0x6C1C, symBinAddr: 0x29A8, symSize: 0x24 }
  - { offset: 0x21823, size: 0x8, addend: 0x0, symName: '__ZN4pyo35types5bytes77_$LT$impl$u20$pyo3..instance..Borrowed$LT$pyo3..types..bytes..PyBytes$GT$$GT$8as_bytes17h920979bcfeedb884E', symObjAddr: 0x73B8, symBinAddr: 0x2B44, symSize: 0x90 }
  - { offset: 0x21AD3, size: 0x8, addend: 0x0, symName: '__ZN4pyo35types5tuple77_$LT$impl$u20$pyo3..instance..Borrowed$LT$pyo3..types..tuple..PyTuple$GT$$GT$27get_borrowed_item_unchecked17h0cf7295a76418a76E', symObjAddr: 0x7A30, symBinAddr: 0x2BD4, symSize: 0x58 }
  - { offset: 0x21B30, size: 0x8, addend: 0x0, symName: '__ZN4pyo35types6string79_$LT$impl$u20$pyo3..instance..Borrowed$LT$pyo3..types..string..PyString$GT$$GT$15to_string_lossy17h40b930999807717bE', symObjAddr: 0x7BAC, symBinAddr: 0x2C2C, symSize: 0x16C }
  - { offset: 0x21C01, size: 0x8, addend: 0x0, symName: '__ZN4pyo35types6string79_$LT$impl$u20$pyo3..instance..Borrowed$LT$pyo3..types..string..PyString$GT$$GT$6to_cow17had8015aa458fe4caE', symObjAddr: 0x7E84, symBinAddr: 0x2D98, symSize: 0x3C }
  - { offset: 0x21C24, size: 0x8, addend: 0x0, symName: '__ZN4pyo35types6string79_$LT$impl$u20$pyo3..instance..Borrowed$LT$pyo3..types..string..PyString$GT$$GT$6to_str17hbaecfaa81081f631E', symObjAddr: 0x7EC0, symBinAddr: 0x2DD4, symSize: 0xD0 }
  - { offset: 0x21CC8, size: 0x8, addend: 0x0, symName: '__ZN4pyo38instance11Py$LT$T$GT$10into_bound17he286fb50cc8f5a24E', symObjAddr: 0x9050, symBinAddr: 0x2EA4, symSize: 0x1C }
  - { offset: 0x21D5F, size: 0x8, addend: 0x0, symName: '__ZN4pyo38instance11Py$LT$T$GT$4bind17h1ae0a93d8c9db93bE', symObjAddr: 0x9108, symBinAddr: 0x2EC0, symSize: 0x38 }
  - { offset: 0x21EB4, size: 0x8, addend: 0x0, symName: '__ZN4pyo38instance11Py$LT$T$GT$4bind17h46fbcaae514dc57bE', symObjAddr: 0x91E8, symBinAddr: 0x2EF8, symSize: 0x38 }
  - { offset: 0x21F9D, size: 0x8, addend: 0x0, symName: '__ZN4pyo38instance11Py$LT$T$GT$6as_ptr17h270ed0353bf8213cE', symObjAddr: 0x92C8, symBinAddr: 0x2F30, symSize: 0x1C }
  - { offset: 0x21FE3, size: 0x8, addend: 0x0, symName: '__ZN4pyo38instance11Py$LT$T$GT$6as_ptr17h438a88b1a63598f4E', symObjAddr: 0x931C, symBinAddr: 0x2F4C, symSize: 0x1C }
  - { offset: 0x22029, size: 0x8, addend: 0x0, symName: '__ZN4pyo38instance11Py$LT$T$GT$6as_ptr17h75236707dd10666cE', symObjAddr: 0x938C, symBinAddr: 0x2F68, symSize: 0x1C }
  - { offset: 0x220A3, size: 0x8, addend: 0x0, symName: '__ZN4pyo38instance11Py$LT$T$GT$6as_ptr17h9aa925835039742eE', symObjAddr: 0x9450, symBinAddr: 0x2F84, symSize: 0x1C }
  - { offset: 0x22110, size: 0x8, addend: 0x0, symName: '__ZN4pyo38instance11Py$LT$T$GT$6as_ptr17haff696c383256196E', symObjAddr: 0x94DC, symBinAddr: 0x2FA0, symSize: 0x1C }
  - { offset: 0x2213C, size: 0x8, addend: 0x0, symName: '__ZN4pyo38instance11Py$LT$T$GT$6as_ptr17hc0ff760c2ee3deffE', symObjAddr: 0x94F8, symBinAddr: 0x2FBC, symSize: 0x1C }
  - { offset: 0x22168, size: 0x8, addend: 0x0, symName: '__ZN4pyo38instance11Py$LT$T$GT$6as_ptr17hd1ee3e89fef4dbd5E', symObjAddr: 0x9530, symBinAddr: 0x2FD8, symSize: 0x1C }
  - { offset: 0x221A1, size: 0x8, addend: 0x0, symName: '__ZN4pyo38instance11Py$LT$T$GT$6as_ptr17hdc4a3fe3fbb6c546E', symObjAddr: 0x9568, symBinAddr: 0x2FF4, symSize: 0x1C }
  - { offset: 0x221CD, size: 0x8, addend: 0x0, symName: '__ZN4pyo38instance11Py$LT$T$GT$6as_ptr17he10e113bd1530897E', symObjAddr: 0x9584, symBinAddr: 0x3010, symSize: 0x1C }
  - { offset: 0x22213, size: 0x8, addend: 0x0, symName: '__ZN4pyo38instance11Py$LT$T$GT$8into_any17h1fd5e948c63fcb8fE', symObjAddr: 0x9624, symBinAddr: 0x302C, symSize: 0x30 }
  - { offset: 0x2223F, size: 0x8, addend: 0x0, symName: '__ZN4pyo38instance11Py$LT$T$GT$8into_any17h8b6adf764faad0f1E', symObjAddr: 0x96B4, symBinAddr: 0x305C, symSize: 0x30 }
  - { offset: 0x2226B, size: 0x8, addend: 0x0, symName: '__ZN4pyo38instance11Py$LT$T$GT$8into_any17h8d617648b811ebc7E', symObjAddr: 0x9714, symBinAddr: 0x308C, symSize: 0x30 }
  - { offset: 0x22297, size: 0x8, addend: 0x0, symName: '__ZN4pyo38instance11Py$LT$T$GT$8into_any17hdf522613a50857f5E', symObjAddr: 0x9744, symBinAddr: 0x30BC, symSize: 0x30 }
  - { offset: 0x222C3, size: 0x8, addend: 0x0, symName: '__ZN4pyo38instance11Py$LT$T$GT$8into_ptr17h35cc86027a57f5f0E', symObjAddr: 0x97D4, symBinAddr: 0x30EC, symSize: 0x30 }
  - { offset: 0x222FC, size: 0x8, addend: 0x0, symName: '__ZN4pyo38instance11Py$LT$T$GT$9clone_ref17h4890aa0704f4e318E', symObjAddr: 0x9C54, symBinAddr: 0x311C, symSize: 0x108 }
  - { offset: 0x223AA, size: 0x8, addend: 0x0, symName: '__ZN4pyo38instance11Py$LT$T$GT$9clone_ref17h74512f3eacf5694fE', symObjAddr: 0x9E64, symBinAddr: 0x3224, symSize: 0x108 }
  - { offset: 0x22458, size: 0x8, addend: 0x0, symName: '__ZN4pyo38instance11Py$LT$T$GT$9clone_ref17hea9c65e453d53b86E', symObjAddr: 0xA59C, symBinAddr: 0x332C, symSize: 0x108 }
  - { offset: 0x22506, size: 0x8, addend: 0x0, symName: '__ZN4pyo38instance14Bound$LT$T$GT$10as_unbound17h03efdfdfe2ff04ceE', symObjAddr: 0xAA20, symBinAddr: 0x372C, symSize: 0x1C }
  - { offset: 0x2254C, size: 0x8, addend: 0x0, symName: '__ZN4pyo38instance14Bound$LT$T$GT$11as_borrowed17h51dd3763709b2482E', symObjAddr: 0xAAFC, symBinAddr: 0x3748, symSize: 0x40 }
  - { offset: 0x22578, size: 0x8, addend: 0x0, symName: '__ZN4pyo38instance14Bound$LT$T$GT$11as_borrowed17h802a341c6353ca15E', symObjAddr: 0xAB7C, symBinAddr: 0x3788, symSize: 0x40 }
  - { offset: 0x225B1, size: 0x8, addend: 0x0, symName: '__ZN4pyo38instance14Bound$LT$T$GT$11as_borrowed17h9cba1cf2d4c6754dE', symObjAddr: 0xABFC, symBinAddr: 0x37C8, symSize: 0x40 }
  - { offset: 0x225EA, size: 0x8, addend: 0x0, symName: '__ZN4pyo38instance14Bound$LT$T$GT$11as_borrowed17ha17846c0943cfc33E', symObjAddr: 0xAC3C, symBinAddr: 0x3808, symSize: 0x40 }
  - { offset: 0x22623, size: 0x8, addend: 0x0, symName: '__ZN4pyo38instance14Bound$LT$T$GT$11as_borrowed17hb5dd6b1d1f34ff5bE', symObjAddr: 0xAC7C, symBinAddr: 0x3848, symSize: 0x40 }
  - { offset: 0x22669, size: 0x8, addend: 0x0, symName: '__ZN4pyo38instance14Bound$LT$T$GT$14cast_unchecked17h25700a6ee763da4dE', symObjAddr: 0xAD6C, symBinAddr: 0x3888, symSize: 0x38 }
  - { offset: 0x226F2, size: 0x8, addend: 0x0, symName: '__ZN4pyo38instance14Bound$LT$T$GT$14cast_unchecked17h403750760e391ae0E', symObjAddr: 0xADA4, symBinAddr: 0x38C0, symSize: 0x38 }
  - { offset: 0x2275F, size: 0x8, addend: 0x0, symName: '__ZN4pyo38instance14Bound$LT$T$GT$14cast_unchecked17h903da2c58c4d1493E', symObjAddr: 0xAE84, symBinAddr: 0x38F8, symSize: 0x38 }
  - { offset: 0x227CC, size: 0x8, addend: 0x0, symName: '__ZN4pyo38instance14Bound$LT$T$GT$14cast_unchecked17hb701ec670a9ccaddE', symObjAddr: 0xAFD4, symBinAddr: 0x3930, symSize: 0x38 }
  - { offset: 0x2281F, size: 0x8, addend: 0x0, symName: '__ZN4pyo38instance14Bound$LT$T$GT$14cast_unchecked17hcc6aba19071e6a3fE', symObjAddr: 0xB07C, symBinAddr: 0x3968, symSize: 0x38 }
  - { offset: 0x22899, size: 0x8, addend: 0x0, symName: '__ZN4pyo38instance14Bound$LT$T$GT$19cast_into_unchecked17h1755a81eb7e87bc8E', symObjAddr: 0xB170, symBinAddr: 0x39A0, symSize: 0x14 }
  - { offset: 0x228CE, size: 0x8, addend: 0x0, symName: '__ZN4pyo38instance14Bound$LT$T$GT$19cast_into_unchecked17h360a733c86ed1d4aE', symObjAddr: 0xB1AC, symBinAddr: 0x39B4, symSize: 0x14 }
  - { offset: 0x22903, size: 0x8, addend: 0x0, symName: '__ZN4pyo38instance14Bound$LT$T$GT$19cast_into_unchecked17h3d5154a4ffdbe2edE', symObjAddr: 0xB1C0, symBinAddr: 0x39C8, symSize: 0x14 }
  - { offset: 0x22938, size: 0x8, addend: 0x0, symName: '__ZN4pyo38instance14Bound$LT$T$GT$19cast_into_unchecked17h4d88f9e32db5288fE', symObjAddr: 0xB1E8, symBinAddr: 0x39DC, symSize: 0x14 }
  - { offset: 0x2296D, size: 0x8, addend: 0x0, symName: '__ZN4pyo38instance14Bound$LT$T$GT$19cast_into_unchecked17h507194bccc2d5df9E', symObjAddr: 0xB210, symBinAddr: 0x39F0, symSize: 0x14 }
  - { offset: 0x229A2, size: 0x8, addend: 0x0, symName: '__ZN4pyo38instance14Bound$LT$T$GT$19cast_into_unchecked17h7a161b6b5b49025aE', symObjAddr: 0xB260, symBinAddr: 0x3A04, symSize: 0x14 }
  - { offset: 0x229D7, size: 0x8, addend: 0x0, symName: '__ZN4pyo38instance14Bound$LT$T$GT$19cast_into_unchecked17hd09e529ccc29732cE', symObjAddr: 0xB3B4, symBinAddr: 0x3A18, symSize: 0x14 }
  - { offset: 0x22A0C, size: 0x8, addend: 0x0, symName: '__ZN4pyo38instance14Bound$LT$T$GT$19cast_into_unchecked17hecba47d147b3c4e8E', symObjAddr: 0xB418, symBinAddr: 0x3A2C, symSize: 0x14 }
  - { offset: 0x22A41, size: 0x8, addend: 0x0, symName: '__ZN4pyo38instance14Bound$LT$T$GT$2py17h15c50ddc62bcb588E', symObjAddr: 0xB440, symBinAddr: 0x3A40, symSize: 0x10 }
  - { offset: 0x22A6D, size: 0x8, addend: 0x0, symName: '__ZN4pyo38instance14Bound$LT$T$GT$2py17h1b1b2d3c32f20e7bE', symObjAddr: 0xB450, symBinAddr: 0x3A50, symSize: 0x10 }
  - { offset: 0x22AA6, size: 0x8, addend: 0x0, symName: '__ZN4pyo38instance14Bound$LT$T$GT$2py17h3a1b259300205d4dE', symObjAddr: 0xB470, symBinAddr: 0x3A60, symSize: 0x10 }
  - { offset: 0x22AF9, size: 0x8, addend: 0x0, symName: '__ZN4pyo38instance14Bound$LT$T$GT$2py17h6f84dc8b18db2cbeE', symObjAddr: 0xB4C0, symBinAddr: 0x3A70, symSize: 0x10 }
  - { offset: 0x22B25, size: 0x8, addend: 0x0, symName: '__ZN4pyo38instance14Bound$LT$T$GT$2py17h7a97a38a5f51f6d1E', symObjAddr: 0xB4E0, symBinAddr: 0x3A80, symSize: 0x10 }
  - { offset: 0x22B5E, size: 0x8, addend: 0x0, symName: '__ZN4pyo38instance14Bound$LT$T$GT$2py17h886818e8c2ee7ec9E', symObjAddr: 0xB510, symBinAddr: 0x3A90, symSize: 0x10 }
  - { offset: 0x22BA4, size: 0x8, addend: 0x0, symName: '__ZN4pyo38instance14Bound$LT$T$GT$2py17haa699da871c8565fE', symObjAddr: 0xB560, symBinAddr: 0x3AA0, symSize: 0x10 }
  - { offset: 0x22BDD, size: 0x8, addend: 0x0, symName: '__ZN4pyo38instance14Bound$LT$T$GT$2py17hbf4f853643027b90E', symObjAddr: 0xB580, symBinAddr: 0x3AB0, symSize: 0x10 }
  - { offset: 0x22C30, size: 0x8, addend: 0x0, symName: '__ZN4pyo38instance14Bound$LT$T$GT$4cast17h1057bc7a8462d78fE', symObjAddr: 0xB5D0, symBinAddr: 0x3AC0, symSize: 0x30 }
  - { offset: 0x22C64, size: 0x8, addend: 0x0, symName: '__ZN4pyo38instance14Bound$LT$T$GT$4cast17h6ca5e49400982185E', symObjAddr: 0xB630, symBinAddr: 0x3AF0, symSize: 0x30 }
  - { offset: 0x22C98, size: 0x8, addend: 0x0, symName: '__ZN4pyo38instance14Bound$LT$T$GT$4cast17hff44f22b808aefcdE', symObjAddr: 0xB660, symBinAddr: 0x3B20, symSize: 0x30 }
  - { offset: 0x22CCC, size: 0x8, addend: 0x0, symName: '__ZN4pyo38instance14Bound$LT$T$GT$6as_any17h01740a61867dbd70E', symObjAddr: 0xB8A0, symBinAddr: 0x3CDC, symSize: 0x38 }
  - { offset: 0x22D34, size: 0x8, addend: 0x0, symName: '__ZN4pyo38instance14Bound$LT$T$GT$6as_any17h02dd57138b4ef996E', symObjAddr: 0xB8D8, symBinAddr: 0x3D14, symSize: 0x38 }
  - { offset: 0x22D9C, size: 0x8, addend: 0x0, symName: '__ZN4pyo38instance14Bound$LT$T$GT$6as_any17h07fab746ba2d7823E', symObjAddr: 0xB910, symBinAddr: 0x3D4C, symSize: 0x38 }
  - { offset: 0x22E11, size: 0x8, addend: 0x0, symName: '__ZN4pyo38instance14Bound$LT$T$GT$6as_any17h709c712e2c05a6a1E', symObjAddr: 0xBA60, symBinAddr: 0x3D84, symSize: 0x38 }
  - { offset: 0x22E79, size: 0x8, addend: 0x0, symName: '__ZN4pyo38instance14Bound$LT$T$GT$6as_any17h861d60059ad51992E', symObjAddr: 0xBA98, symBinAddr: 0x3DBC, symSize: 0x38 }
  - { offset: 0x22EE1, size: 0x8, addend: 0x0, symName: '__ZN4pyo38instance14Bound$LT$T$GT$6as_any17hf63d77415528160eE', symObjAddr: 0xBC20, symBinAddr: 0x3DF4, symSize: 0x38 }
  - { offset: 0x22F49, size: 0x8, addend: 0x0, symName: '__ZN4pyo38instance14Bound$LT$T$GT$6as_ptr17h0ce207deb5514a39E', symObjAddr: 0xBC84, symBinAddr: 0x3E2C, symSize: 0x2C }
  - { offset: 0x22F75, size: 0x8, addend: 0x0, symName: '__ZN4pyo38instance14Bound$LT$T$GT$6as_ptr17h19c45de3b6bd2f2cE', symObjAddr: 0xBCDC, symBinAddr: 0x3E58, symSize: 0x2C }
  - { offset: 0x22FAE, size: 0x8, addend: 0x0, symName: '__ZN4pyo38instance14Bound$LT$T$GT$6as_ptr17h4e7787335e119d2fE', symObjAddr: 0xBDB8, symBinAddr: 0x3E84, symSize: 0x2C }
  - { offset: 0x22FDA, size: 0x8, addend: 0x0, symName: '__ZN4pyo38instance14Bound$LT$T$GT$6as_ptr17h5c34cc6ac3518946E', symObjAddr: 0xBE3C, symBinAddr: 0x3EB0, symSize: 0x2C }
  - { offset: 0x23006, size: 0x8, addend: 0x0, symName: '__ZN4pyo38instance14Bound$LT$T$GT$6as_ptr17hc6292ebfa83a83e5E', symObjAddr: 0xC04C, symBinAddr: 0x3EDC, symSize: 0x2C }
  - { offset: 0x23032, size: 0x8, addend: 0x0, symName: '__ZN4pyo38instance14Bound$LT$T$GT$6as_ptr17hd272ebaf28acac89E', symObjAddr: 0xC078, symBinAddr: 0x3F08, symSize: 0x2C }
  - { offset: 0x2306B, size: 0x8, addend: 0x0, symName: '__ZN4pyo38instance14Bound$LT$T$GT$6as_ptr17he28d82ed471aff33E', symObjAddr: 0xC154, symBinAddr: 0x3F34, symSize: 0x2C }
  - { offset: 0x23097, size: 0x8, addend: 0x0, symName: '__ZN4pyo38instance14Bound$LT$T$GT$6as_ptr17he4292f39350e96e8E', symObjAddr: 0xC180, symBinAddr: 0x3F60, symSize: 0x2C }
  - { offset: 0x230C3, size: 0x8, addend: 0x0, symName: '__ZN4pyo38instance14Bound$LT$T$GT$6as_ptr17he7f83ac59c705291E', symObjAddr: 0xC1AC, symBinAddr: 0x3F8C, symSize: 0x2C }
  - { offset: 0x230EF, size: 0x8, addend: 0x0, symName: '__ZN4pyo38instance14Bound$LT$T$GT$6unbind17h4ee8d1e2e7d66b2cE', symObjAddr: 0xC27C, symBinAddr: 0x3FB8, symSize: 0x3C }
  - { offset: 0x2311B, size: 0x8, addend: 0x0, symName: '__ZN4pyo38instance14Bound$LT$T$GT$6unbind17hb64b9478f3a79658E', symObjAddr: 0xC36C, symBinAddr: 0x3FF4, symSize: 0x3C }
  - { offset: 0x23147, size: 0x8, addend: 0x0, symName: '__ZN4pyo38instance14Bound$LT$T$GT$6unbind17hb7a3f1f7184d504fE', symObjAddr: 0xC3A8, symBinAddr: 0x4030, symSize: 0x3C }
  - { offset: 0x23173, size: 0x8, addend: 0x0, symName: '__ZN4pyo38instance14Bound$LT$T$GT$6unbind17hc4c8d2a1af67a6b6E', symObjAddr: 0xC3E4, symBinAddr: 0x406C, symSize: 0x3C }
  - { offset: 0x2319F, size: 0x8, addend: 0x0, symName: '__ZN4pyo38instance14Bound$LT$T$GT$6unbind17hdb6c7647a075aa12E', symObjAddr: 0xC420, symBinAddr: 0x40A8, symSize: 0x3C }
  - { offset: 0x231CB, size: 0x8, addend: 0x0, symName: '__ZN4pyo38instance14Bound$LT$T$GT$8into_any17h2869b4e62fbb2c2eE', symObjAddr: 0xC57C, symBinAddr: 0x40E4, symSize: 0x30 }
  - { offset: 0x231F7, size: 0x8, addend: 0x0, symName: '__ZN4pyo38instance14Bound$LT$T$GT$8into_any17h2cc504045854eeb9E', symObjAddr: 0xC5AC, symBinAddr: 0x4114, symSize: 0x30 }
  - { offset: 0x23223, size: 0x8, addend: 0x0, symName: '__ZN4pyo38instance14Bound$LT$T$GT$8into_any17hc0ed86c5d8075ecbE', symObjAddr: 0xC69C, symBinAddr: 0x4144, symSize: 0x30 }
  - { offset: 0x2324F, size: 0x8, addend: 0x0, symName: '__ZN4pyo38instance14Bound$LT$T$GT$8into_any17hf031b27b36913fedE', symObjAddr: 0xC6FC, symBinAddr: 0x4174, symSize: 0x30 }
  - { offset: 0x2327B, size: 0x8, addend: 0x0, symName: '__ZN4pyo38instance14Bound$LT$T$GT$8into_ptr17h2f7681323bfd4cfaE', symObjAddr: 0xC72C, symBinAddr: 0x41A4, symSize: 0x40 }
  - { offset: 0x232A7, size: 0x8, addend: 0x0, symName: '__ZN4pyo38instance14Bound$LT$T$GT$9cast_into17hd3a97124343ab213E', symObjAddr: 0xC8BC, symBinAddr: 0x41E4, symSize: 0x30 }
  - { offset: 0x232DB, size: 0x8, addend: 0x0, symName: '__ZN4pyo38instance17Borrowed$LT$T$GT$14cast_unchecked17h17235b9cb1826c24E', symObjAddr: 0xD3D0, symBinAddr: 0x4310, symSize: 0x14 }
  - { offset: 0x23310, size: 0x8, addend: 0x0, symName: '__ZN4pyo38instance17Borrowed$LT$T$GT$14cast_unchecked17h547d17053963d643E', symObjAddr: 0xD420, symBinAddr: 0x4324, symSize: 0x14 }
  - { offset: 0x23345, size: 0x8, addend: 0x0, symName: '__ZN4pyo38instance17Borrowed$LT$T$GT$14cast_unchecked17h767b4d47516c4ec7E', symObjAddr: 0xD434, symBinAddr: 0x4338, symSize: 0x14 }
  - { offset: 0x2337A, size: 0x8, addend: 0x0, symName: '__ZN4pyo38instance17Borrowed$LT$T$GT$14cast_unchecked17h8a4e89480e3c1b13E', symObjAddr: 0xD448, symBinAddr: 0x434C, symSize: 0x14 }
  - { offset: 0x233AF, size: 0x8, addend: 0x0, symName: '__ZN4pyo38instance17Borrowed$LT$T$GT$14cast_unchecked17hc2836343ea4cd3acE', symObjAddr: 0xD4AC, symBinAddr: 0x4360, symSize: 0x14 }
  - { offset: 0x233E4, size: 0x8, addend: 0x0, symName: '__ZN4pyo38instance17Borrowed$LT$T$GT$14cast_unchecked17hdff55d7b45b6f5f9E', symObjAddr: 0xD4E8, symBinAddr: 0x4374, symSize: 0x14 }
  - { offset: 0x23419, size: 0x8, addend: 0x0, symName: '__ZN4pyo38instance17Borrowed$LT$T$GT$14cast_unchecked17hf8491786085f65f1E', symObjAddr: 0xD510, symBinAddr: 0x4388, symSize: 0x14 }
  - { offset: 0x2344E, size: 0x8, addend: 0x0, symName: '__ZN4pyo38instance17Borrowed$LT$T$GT$6as_ptr17h47fe55a0da84a784E', symObjAddr: 0xD978, symBinAddr: 0x439C, symSize: 0x1C }
  - { offset: 0x2347A, size: 0x8, addend: 0x0, symName: '__ZN4pyo38instance17Borrowed$LT$T$GT$6as_ptr17h8bc9c800bea08426E', symObjAddr: 0xD9B0, symBinAddr: 0x43B8, symSize: 0x1C }
  - { offset: 0x234A6, size: 0x8, addend: 0x0, symName: '__ZN4pyo38instance17Borrowed$LT$T$GT$6as_ptr17he5ab9393eff98009E', symObjAddr: 0xD9CC, symBinAddr: 0x43D4, symSize: 0x1C }
  - { offset: 0x234D2, size: 0x8, addend: 0x0, symName: '__ZN4pyo38instance17Borrowed$LT$T$GT$6as_ptr17hea2e02650a5382aaE', symObjAddr: 0xD9E8, symBinAddr: 0x43F0, symSize: 0x1C }
  - { offset: 0x234FE, size: 0x8, addend: 0x0, symName: '__ZN4pyo38instance17Borrowed$LT$T$GT$6to_any17h08ed4a827d5ceb59E', symObjAddr: 0xDA04, symBinAddr: 0x440C, symSize: 0x14 }
  - { offset: 0x2352A, size: 0x8, addend: 0x0, symName: '__ZN4pyo38instance17Borrowed$LT$T$GT$6to_any17h2e54ec5117121e3eE', symObjAddr: 0xDA2C, symBinAddr: 0x4420, symSize: 0x14 }
  - { offset: 0x23556, size: 0x8, addend: 0x0, symName: '__ZN4pyo38instance17Borrowed$LT$T$GT$6to_any17h4259d447727a637fE', symObjAddr: 0xDA54, symBinAddr: 0x4434, symSize: 0x14 }
  - { offset: 0x235C5, size: 0x8, addend: 0x0, symName: '__ZN4pyo38instance17Borrowed$LT$T$GT$8to_owned17h283579a49f6488a8E', symObjAddr: 0xDE2C, symBinAddr: 0x4448, symSize: 0x2C }
  - { offset: 0x235F1, size: 0x8, addend: 0x0, symName: '__ZN4pyo38instance17Borrowed$LT$T$GT$8to_owned17hf5c2f6d22f679dc4E', symObjAddr: 0xDEB0, symBinAddr: 0x4474, symSize: 0x2C }
  - { offset: 0x23655, size: 0x8, addend: 0x0, symName: '__ZN4pyo38instance36Bound$LT$pyo3..types..any..PyAny$GT$14from_owned_ptr17h00dff71e2390c6b3E', symObjAddr: 0xDF14, symBinAddr: 0x44A0, symSize: 0x48 }
  - { offset: 0x236BE, size: 0x8, addend: 0x0, symName: '__ZN4pyo38instance36Bound$LT$pyo3..types..any..PyAny$GT$17ref_from_non_null17ha9ccfc4596b77efbE', symObjAddr: 0xDF78, symBinAddr: 0x4504, symSize: 0x38 }
  - { offset: 0x23745, size: 0x8, addend: 0x0, symName: '__ZN4pyo38instance36Bound$LT$pyo3..types..any..PyAny$GT$21from_owned_ptr_or_err17ha3cf17c8d910ca02E', symObjAddr: 0xDFE8, symBinAddr: 0x453C, symSize: 0x9C }
  - { offset: 0x237A1, size: 0x8, addend: 0x0, symName: '__ZN4pyo38instance36Bound$LT$pyo3..types..any..PyAny$GT$21from_owned_ptr_or_opt17h2e7b21c9a0b8f462E', symObjAddr: 0xE084, symBinAddr: 0x45D8, symSize: 0x2C }
  - { offset: 0x237DF, size: 0x8, addend: 0x0, symName: '__ZN4pyo38instance39Borrowed$LT$pyo3..types..any..PyAny$GT$13from_non_null17hb354f247fe7a2566E', symObjAddr: 0xE120, symBinAddr: 0x463C, symSize: 0x14 }
  - { offset: 0x2381D, size: 0x8, addend: 0x0, symName: '__ZN4pyo38instance39Borrowed$LT$pyo3..types..any..PyAny$GT$18from_ptr_unchecked17h4cc4603aa2e4c294E', symObjAddr: 0xE204, symBinAddr: 0x46E8, symSize: 0x30 }
  - { offset: 0x2492E, size: 0x8, addend: 0x0, symName: '__ZN153_$LT$core..result..Result$LT$T$C$F$GT$$u20$as$u20$core..ops..try_trait..FromResidual$LT$core..result..Result$LT$core..convert..Infallible$C$E$GT$$GT$$GT$13from_residual17h0a0879f844e4afeaE', symObjAddr: 0x9C4, symBinAddr: 0x5EC8, symSize: 0x6C }
  - { offset: 0x249B4, size: 0x8, addend: 0x0, symName: '__ZN153_$LT$core..result..Result$LT$T$C$F$GT$$u20$as$u20$core..ops..try_trait..FromResidual$LT$core..result..Result$LT$core..convert..Infallible$C$E$GT$$GT$$GT$13from_residual17h336329410f75e1c3E', symObjAddr: 0xEA0, symBinAddr: 0x5F34, symSize: 0x6C }
  - { offset: 0x24A3A, size: 0x8, addend: 0x0, symName: '__ZN153_$LT$core..result..Result$LT$T$C$F$GT$$u20$as$u20$core..ops..try_trait..FromResidual$LT$core..result..Result$LT$core..convert..Infallible$C$E$GT$$GT$$GT$13from_residual17h79d4f7bb89cbc2e8E', symObjAddr: 0x193C, symBinAddr: 0x5FA0, symSize: 0x6C }
  - { offset: 0x24AC0, size: 0x8, addend: 0x0, symName: '__ZN153_$LT$core..result..Result$LT$T$C$F$GT$$u20$as$u20$core..ops..try_trait..FromResidual$LT$core..result..Result$LT$core..convert..Infallible$C$E$GT$$GT$$GT$13from_residual17ha02588c1b7e29acaE', symObjAddr: 0x20BC, symBinAddr: 0x600C, symSize: 0x6C }
  - { offset: 0x24B46, size: 0x8, addend: 0x0, symName: '__ZN153_$LT$core..result..Result$LT$T$C$F$GT$$u20$as$u20$core..ops..try_trait..FromResidual$LT$core..result..Result$LT$core..convert..Infallible$C$E$GT$$GT$$GT$13from_residual17hb5463f286db1c934E', symObjAddr: 0x2424, symBinAddr: 0x6078, symSize: 0x6C }
  - { offset: 0x24BCC, size: 0x8, addend: 0x0, symName: '__ZN153_$LT$core..result..Result$LT$T$C$F$GT$$u20$as$u20$core..ops..try_trait..FromResidual$LT$core..result..Result$LT$core..convert..Infallible$C$E$GT$$GT$$GT$13from_residual17hbc038b0a3b6a13f7E', symObjAddr: 0x26A4, symBinAddr: 0x60E4, symSize: 0x6C }
  - { offset: 0x24C33, size: 0x8, addend: 0x0, symName: '__ZN153_$LT$core..result..Result$LT$T$C$F$GT$$u20$as$u20$core..ops..try_trait..FromResidual$LT$core..result..Result$LT$core..convert..Infallible$C$E$GT$$GT$$GT$13from_residual17hbd67abd035e9d3d5E', symObjAddr: 0x277C, symBinAddr: 0x6150, symSize: 0x6C }
  - { offset: 0x24CB9, size: 0x8, addend: 0x0, symName: '__ZN153_$LT$core..result..Result$LT$T$C$F$GT$$u20$as$u20$core..ops..try_trait..FromResidual$LT$core..result..Result$LT$core..convert..Infallible$C$E$GT$$GT$$GT$13from_residual17he00706d4eaf88e3bE', symObjAddr: 0x2C8C, symBinAddr: 0x61BC, symSize: 0x6C }
  - { offset: 0x24D3F, size: 0x8, addend: 0x0, symName: '__ZN153_$LT$core..result..Result$LT$T$C$F$GT$$u20$as$u20$core..ops..try_trait..FromResidual$LT$core..result..Result$LT$core..convert..Infallible$C$E$GT$$GT$$GT$13from_residual17he17a615712dafc39E', symObjAddr: 0x2CF8, symBinAddr: 0x6228, symSize: 0x14 }
  - { offset: 0x24D88, size: 0x8, addend: 0x0, symName: '__ZN153_$LT$core..result..Result$LT$T$C$F$GT$$u20$as$u20$core..ops..try_trait..FromResidual$LT$core..result..Result$LT$core..convert..Infallible$C$E$GT$$GT$$GT$13from_residual17hf3ce682d37841f66E', symObjAddr: 0x2E30, symBinAddr: 0x623C, symSize: 0x6C }
  - { offset: 0x2735E, size: 0x8, addend: 0x0, symName: '__ZN79_$LT$core..result..Result$LT$T$C$E$GT$$u20$as$u20$core..ops..try_trait..Try$GT$6branch17h237c5effa6f43d7aE', symObjAddr: 0x7060, symBinAddr: 0x6D54, symSize: 0x14 }
  - { offset: 0x2739A, size: 0x8, addend: 0x0, symName: '__ZN79_$LT$core..result..Result$LT$T$C$E$GT$$u20$as$u20$core..ops..try_trait..Try$GT$6branch17h26df1bfa3b3aa014E', symObjAddr: 0x7114, symBinAddr: 0x6D68, symSize: 0x44 }
  - { offset: 0x27416, size: 0x8, addend: 0x0, symName: '__ZN79_$LT$core..result..Result$LT$T$C$E$GT$$u20$as$u20$core..ops..try_trait..Try$GT$6branch17h2925bbbd9bbb0f67E', symObjAddr: 0x7158, symBinAddr: 0x6DAC, symSize: 0xA0 }
  - { offset: 0x27493, size: 0x8, addend: 0x0, symName: '__ZN79_$LT$core..result..Result$LT$T$C$E$GT$$u20$as$u20$core..ops..try_trait..Try$GT$6branch17h532451a4ce3e735cE', symObjAddr: 0x7688, symBinAddr: 0x6E4C, symSize: 0xA0 }
  - { offset: 0x27510, size: 0x8, addend: 0x0, symName: '__ZN79_$LT$core..result..Result$LT$T$C$E$GT$$u20$as$u20$core..ops..try_trait..Try$GT$6branch17h5bee450084a34428E', symObjAddr: 0x7874, symBinAddr: 0x6EEC, symSize: 0xA0 }
  - { offset: 0x2758D, size: 0x8, addend: 0x0, symName: '__ZN79_$LT$core..result..Result$LT$T$C$E$GT$$u20$as$u20$core..ops..try_trait..Try$GT$6branch17h96381df74149fddfE', symObjAddr: 0x84A4, symBinAddr: 0x6F8C, symSize: 0xA0 }
  - { offset: 0x2760A, size: 0x8, addend: 0x0, symName: '__ZN79_$LT$core..result..Result$LT$T$C$E$GT$$u20$as$u20$core..ops..try_trait..Try$GT$6branch17ha9008e6086baf591E', symObjAddr: 0x85E4, symBinAddr: 0x702C, symSize: 0x90 }
  - { offset: 0x27687, size: 0x8, addend: 0x0, symName: '__ZN79_$LT$core..result..Result$LT$T$C$E$GT$$u20$as$u20$core..ops..try_trait..Try$GT$6branch17hb18ff0b93a095199E', symObjAddr: 0x8674, symBinAddr: 0x70BC, symSize: 0xA0 }
  - { offset: 0x27704, size: 0x8, addend: 0x0, symName: '__ZN79_$LT$core..result..Result$LT$T$C$E$GT$$u20$as$u20$core..ops..try_trait..Try$GT$6branch17hb601ee131233c5c0E', symObjAddr: 0x8854, symBinAddr: 0x715C, symSize: 0x38 }
  - { offset: 0x27780, size: 0x8, addend: 0x0, symName: '__ZN79_$LT$core..result..Result$LT$T$C$E$GT$$u20$as$u20$core..ops..try_trait..Try$GT$6branch17hbf1af4042e1e4a92E', symObjAddr: 0x8A90, symBinAddr: 0x7194, symSize: 0xA0 }
  - { offset: 0x277FD, size: 0x8, addend: 0x0, symName: '__ZN79_$LT$core..result..Result$LT$T$C$E$GT$$u20$as$u20$core..ops..try_trait..Try$GT$6branch17hd82b37b55ee18b5bE', symObjAddr: 0x8D34, symBinAddr: 0x7234, symSize: 0x68 }
  - { offset: 0x2787A, size: 0x8, addend: 0x0, symName: '__ZN79_$LT$core..result..Result$LT$T$C$E$GT$$u20$as$u20$core..ops..try_trait..Try$GT$6branch17he89de4282c4e5157E', symObjAddr: 0x9000, symBinAddr: 0x729C, symSize: 0xB4 }
  - { offset: 0x278F8, size: 0x8, addend: 0x0, symName: '__ZN79_$LT$core..result..Result$LT$T$C$E$GT$$u20$as$u20$core..ops..try_trait..Try$GT$6branch17heabaaed60bbeb05eE', symObjAddr: 0x9160, symBinAddr: 0x7350, symSize: 0xA0 }
  - { offset: 0x2957A, size: 0x8, addend: 0x0, symName: '__ZN152_$LT$core..result..Result$LT$pyo3..instance..Bound$LT$pyo3..types..any..PyAny$GT$$C$pyo3..err..PyErr$GT$$u20$as$u20$pyo3..py_result_ext..PyResultExt$GT$19cast_into_unchecked17h244fe82a6a00ebd3E', symObjAddr: 0x100, symBinAddr: 0x5E08, symSize: 0x40 }
  - { offset: 0x295B0, size: 0x8, addend: 0x0, symName: '__ZN152_$LT$core..result..Result$LT$pyo3..instance..Bound$LT$pyo3..types..any..PyAny$GT$$C$pyo3..err..PyErr$GT$$u20$as$u20$pyo3..py_result_ext..PyResultExt$GT$19cast_into_unchecked17h706c526111de3d90E', symObjAddr: 0x200, symBinAddr: 0x5E48, symSize: 0x40 }
  - { offset: 0x295E6, size: 0x8, addend: 0x0, symName: '__ZN152_$LT$core..result..Result$LT$pyo3..instance..Bound$LT$pyo3..types..any..PyAny$GT$$C$pyo3..err..PyErr$GT$$u20$as$u20$pyo3..py_result_ext..PyResultExt$GT$19cast_into_unchecked17h97d437837f0ef924E', symObjAddr: 0x340, symBinAddr: 0x5E88, symSize: 0x40 }
  - { offset: 0x2A77A, size: 0x8, addend: 0x0, symName: '__ZN4core6result19Result$LT$T$C$E$GT$14unwrap_or_else17hb50d497dce24d91eE', symObjAddr: 0x2F28, symBinAddr: 0x62A8, symSize: 0x8C }
  - { offset: 0x2A7E6, size: 0x8, addend: 0x0, symName: '__ZN4core6result19Result$LT$T$C$E$GT$3map17h09aeb924b8577811E', symObjAddr: 0x3080, symBinAddr: 0x6334, symSize: 0x90 }
  - { offset: 0x2A891, size: 0x8, addend: 0x0, symName: '__ZN4core6result19Result$LT$T$C$E$GT$3map17h15ab8a3762e27a5dE', symObjAddr: 0x31A0, symBinAddr: 0x63C4, symSize: 0x90 }
  - { offset: 0x2A952, size: 0x8, addend: 0x0, symName: '__ZN4core6result19Result$LT$T$C$E$GT$3map17h429bc8bae9e0a194E', symObjAddr: 0x375C, symBinAddr: 0x6454, symSize: 0x74 }
  - { offset: 0x2AA14, size: 0x8, addend: 0x0, symName: '__ZN4core6result19Result$LT$T$C$E$GT$3map17h7fed98acf1a3a6c3E', symObjAddr: 0x3DE0, symBinAddr: 0x64C8, symSize: 0x90 }
  - { offset: 0x2AABF, size: 0x8, addend: 0x0, symName: '__ZN4core6result19Result$LT$T$C$E$GT$3map17haa0a6bad8c5e0dcfE', symObjAddr: 0x3F00, symBinAddr: 0x6558, symSize: 0xA8 }
  - { offset: 0x2AB53, size: 0x8, addend: 0x0, symName: '__ZN4core6result19Result$LT$T$C$E$GT$3map17hd2c17cff87ca2399E', symObjAddr: 0x4254, symBinAddr: 0x6600, symSize: 0xA0 }
  - { offset: 0x2ABE6, size: 0x8, addend: 0x0, symName: '__ZN4core6result19Result$LT$T$C$E$GT$3map17heee7b117eadc3b21E', symObjAddr: 0x4414, symBinAddr: 0x66A0, symSize: 0x90 }
  - { offset: 0x2AC86, size: 0x8, addend: 0x0, symName: '__ZN4core6result19Result$LT$T$C$E$GT$6as_ref17hbed07e32764a3afbE', symObjAddr: 0x45C4, symBinAddr: 0x6730, symSize: 0x68 }
  - { offset: 0x2ACF7, size: 0x8, addend: 0x0, symName: '__ZN4core6result19Result$LT$T$C$E$GT$6expect17h486dab9f136406afE', symObjAddr: 0x4754, symBinAddr: 0x6798, symSize: 0x84 }
  - { offset: 0x2AD59, size: 0x8, addend: 0x0, symName: '__ZN4core6result19Result$LT$T$C$E$GT$6expect17h5da330d9928aaee7E', symObjAddr: 0x4888, symBinAddr: 0x681C, symSize: 0xA4 }
  - { offset: 0x2ADBC, size: 0x8, addend: 0x0, symName: '__ZN4core6result19Result$LT$T$C$E$GT$6expect17h8a03ae53e5c9d269E', symObjAddr: 0x492C, symBinAddr: 0x68C0, symSize: 0xB0 }
  - { offset: 0x2AE1F, size: 0x8, addend: 0x0, symName: '__ZN4core6result19Result$LT$T$C$E$GT$6expect17h92cf8b66db3de789E', symObjAddr: 0x49DC, symBinAddr: 0x6970, symSize: 0xB0 }
  - { offset: 0x2AEF3, size: 0x8, addend: 0x0, symName: '__ZN4core6result19Result$LT$T$C$E$GT$7map_err17h3e37b4687592c1f5E', symObjAddr: 0x53FC, symBinAddr: 0x6A20, symSize: 0x30 }
  - { offset: 0x2AF69, size: 0x8, addend: 0x0, symName: '__ZN4core6result19Result$LT$T$C$E$GT$7map_err17h8d39b979d0997310E', symObjAddr: 0x58EC, symBinAddr: 0x6A50, symSize: 0x98 }
  - { offset: 0x2AFFC, size: 0x8, addend: 0x0, symName: '__ZN4core6result19Result$LT$T$C$E$GT$7map_err17h970101ccb4b42a64E', symObjAddr: 0x59B4, symBinAddr: 0x6AE8, symSize: 0x84 }
  - { offset: 0x2B08F, size: 0x8, addend: 0x0, symName: '__ZN4core6result19Result$LT$T$C$E$GT$7map_err17ha561facebd84379eE', symObjAddr: 0x5A38, symBinAddr: 0x6B6C, symSize: 0x84 }
  - { offset: 0x2B136, size: 0x8, addend: 0x0, symName: '__ZN4core6result19Result$LT$T$C$E$GT$9unwrap_or17h6b07d8f285f53b73E', symObjAddr: 0x6A78, symBinAddr: 0x6BF0, symSize: 0x70 }
  - { offset: 0x2B17A, size: 0x8, addend: 0x0, symName: '__ZN4core6result19Result$LT$T$C$E$GT$9unwrap_or17hfab381a3512595ecE', symObjAddr: 0x6AE8, symBinAddr: 0x6C60, symSize: 0xF4 }
  - { offset: 0x2D4CC, size: 0x8, addend: 0x0, symName: __ZN4core3ptr19copy_nonoverlapping18precondition_check17h1e17edd2ab7feb97E, symObjAddr: 0x958, symBinAddr: 0x7500, symSize: 0x168 }
  - { offset: 0x2E020, size: 0x8, addend: 0x0, symName: __ZN4core3str8converts19from_utf8_unchecked17h7b1f9791ae9ce21aE, symObjAddr: 0x125C, symBinAddr: 0x7668, symSize: 0x18 }
  - { offset: 0x2E05D, size: 0x8, addend: 0x0, symName: '__ZN4core7convert3num71_$LT$impl$u20$core..convert..TryFrom$LT$usize$GT$$u20$for$u20$isize$GT$8try_from17he13ff72edc083decE', symObjAddr: 0x17B8, symBinAddr: 0x76D8, symSize: 0x5C }
  - { offset: 0x2EF7D, size: 0x8, addend: 0x0, symName: '__ZN103_$LT$alloc..vec..into_iter..IntoIter$LT$T$C$A$GT$$u20$as$u20$core..iter..traits..iterator..Iterator$GT$4next17h90fa3d93489c543bE', symObjAddr: 0xA8, symBinAddr: 0x73F0, symSize: 0x88 }
  - { offset: 0x2F123, size: 0x8, addend: 0x0, symName: '__ZN157_$LT$$LT$alloc..vec..into_iter..IntoIter$LT$T$C$A$GT$$u20$as$u20$core..ops..drop..Drop$GT$..drop..DropGuard$LT$T$C$A$GT$$u20$as$u20$core..ops..drop..Drop$GT$4drop17h033c5b5857f1909bE', symObjAddr: 0x130, symBinAddr: 0x7478, symSize: 0x6C }
  - { offset: 0x2F28F, size: 0x8, addend: 0x0, symName: '__ZN86_$LT$alloc..vec..into_iter..IntoIter$LT$T$C$A$GT$$u20$as$u20$core..ops..drop..Drop$GT$4drop17h3d11743bcafb2e57E', symObjAddr: 0x42F0, symBinAddr: 0x7BDC, symSize: 0x64 }
  - { offset: 0x2F6FB, size: 0x8, addend: 0x0, symName: '__ZN77_$LT$alloc..raw_vec..RawVec$LT$T$C$A$GT$$u20$as$u20$core..ops..drop..Drop$GT$4drop17heca61c9409d31b80E', symObjAddr: 0x4234, symBinAddr: 0x7BAC, symSize: 0x30 }
  - { offset: 0x2F83F, size: 0x8, addend: 0x0, symName: '__ZN72_$LT$alloc..boxed..Box$LT$T$C$A$GT$$u20$as$u20$core..ops..drop..Drop$GT$4drop17h12a6460d9bff8564E', symObjAddr: 0x37C0, symBinAddr: 0x7974, symSize: 0xC4 }
  - { offset: 0x2F978, size: 0x8, addend: 0x0, symName: '__ZN72_$LT$alloc..boxed..Box$LT$T$C$A$GT$$u20$as$u20$core..ops..drop..Drop$GT$4drop17h1c8ae6d16d359abfE', symObjAddr: 0x3934, symBinAddr: 0x7A38, symSize: 0xB0 }
  - { offset: 0x2FAB1, size: 0x8, addend: 0x0, symName: '__ZN72_$LT$alloc..boxed..Box$LT$T$C$A$GT$$u20$as$u20$core..ops..drop..Drop$GT$4drop17h2ab70660c9499401E', symObjAddr: 0x3A94, symBinAddr: 0x7AE8, symSize: 0xC4 }
  - { offset: 0x2FBF0, size: 0x8, addend: 0x0, symName: '__ZN90_$LT$alloc..boxed..Box$LT$F$C$A$GT$$u20$as$u20$core..ops..function..FnOnce$LT$Args$GT$$GT$9call_once17h7511cf694a120830E', symObjAddr: 0x43F8, symBinAddr: 0x7C40, symSize: 0xA0 }
  - { offset: 0x2FEA0, size: 0x8, addend: 0x0, symName: __ZN3std6thread6thread6Thread2id17h85be1c5f30a19d2cE, symObjAddr: 0x208, symBinAddr: 0x74E4, symSize: 0x1C }
  - { offset: 0x30032, size: 0x8, addend: 0x0, symName: '__ZN4core4cell13Cell$LT$T$GT$3get17h2e7552ccc65e2bd2E', symObjAddr: 0x1274, symBinAddr: 0x7680, symSize: 0x18 }
  - { offset: 0x30086, size: 0x8, addend: 0x0, symName: '__ZN4core4cell13Cell$LT$T$GT$3set17h93aa5bcc0b636ea1E', symObjAddr: 0x128C, symBinAddr: 0x7698, symSize: 0x1C }
  - { offset: 0x300FC, size: 0x8, addend: 0x0, symName: '__ZN4core4cell13Cell$LT$T$GT$7replace17hdc2d624091b34080E', symObjAddr: 0x12A8, symBinAddr: 0x76B4, symSize: 0x24 }
  - { offset: 0x301E1, size: 0x8, addend: 0x0, symName: '__ZN5alloc3vec9into_iter21IntoIter$LT$T$C$A$GT$16as_raw_mut_slice17h02d859a816e8f9b8E', symObjAddr: 0x2634, symBinAddr: 0x7734, symSize: 0xCC }
  - { offset: 0x303AA, size: 0x8, addend: 0x0, symName: '__ZN5alloc7raw_vec19RawVec$LT$T$C$A$GT$8grow_one17habbd099681bea3c4E', symObjAddr: 0x2DD0, symBinAddr: 0x7800, symSize: 0x84 }
  - { offset: 0x3051D, size: 0x8, addend: 0x0, symName: '__ZN5alloc7raw_vec20RawVecInner$LT$A$GT$16with_capacity_in17h1baededb44e95dd4E', symObjAddr: 0x35DC, symBinAddr: 0x7884, symSize: 0xF0 }
  - { offset: 0x30B15, size: 0x8, addend: 0x0, symName: '__ZN9once_cell4sync17OnceCell$LT$T$GT$11get_or_init28_$u7b$$u7b$closure$u7d$$u7d$17h01f94d69e8d83390E', symObjAddr: 0x4524, symBinAddr: 0x7D6C, symSize: 0x34 }
  - { offset: 0x30B57, size: 0x8, addend: 0x0, symName: '__ZN9once_cell4sync17OnceCell$LT$T$GT$11get_or_init28_$u7b$$u7b$closure$u7d$$u7d$17h603d56565a7598c1E', symObjAddr: 0x4558, symBinAddr: 0x7DA0, symSize: 0x38 }
  - { offset: 0x30CA2, size: 0x8, addend: 0x0, symName: '__ZN9once_cell4sync17OnceCell$LT$T$GT$11get_or_init17h90b7cd8435e51dc8E', symObjAddr: 0x4498, symBinAddr: 0x7CE0, symSize: 0x44 }
  - { offset: 0x30D01, size: 0x8, addend: 0x0, symName: '__ZN9once_cell4sync17OnceCell$LT$T$GT$11get_or_init17he60618c878e2817aE', symObjAddr: 0x44DC, symBinAddr: 0x7D24, symSize: 0x48 }
  - { offset: 0x30D46, size: 0x8, addend: 0x0, symName: '__ZN9once_cell4sync17OnceCell$LT$T$GT$13get_unchecked17hc32fac25e0d3cedcE', symObjAddr: 0x45FC, symBinAddr: 0x7DD8, symSize: 0x24 }
  - { offset: 0x30D72, size: 0x8, addend: 0x0, symName: '__ZN9once_cell4sync17OnceCell$LT$T$GT$13get_unchecked17hd02b8b449a2792acE', symObjAddr: 0x4620, symBinAddr: 0x7DFC, symSize: 0x24 }
  - { offset: 0x30D9E, size: 0x8, addend: 0x0, symName: '__ZN9once_cell4sync17OnceCell$LT$T$GT$15get_or_try_init17h897d559c70b635fbE', symObjAddr: 0x480C, symBinAddr: 0x7E20, symSize: 0x150 }
  - { offset: 0x30E0F, size: 0x8, addend: 0x0, symName: '__ZN9once_cell4sync17OnceCell$LT$T$GT$15get_or_try_init17hf839bc2b03871052E', symObjAddr: 0x5088, symBinAddr: 0x7F70, symSize: 0x14C }
  - { offset: 0x30E73, size: 0x8, addend: 0x0, symName: '__ZN9once_cell4sync17OnceCell$LT$T$GT$3get17hb523aea061a54019E', symObjAddr: 0x526C, symBinAddr: 0x80BC, symSize: 0x4C }
  - { offset: 0x30E9F, size: 0x8, addend: 0x0, symName: '__ZN9once_cell4sync17OnceCell$LT$T$GT$3get17hba5c591dbea0bdaeE', symObjAddr: 0x5304, symBinAddr: 0x8108, symSize: 0x4C }
  - { offset: 0x3254D, size: 0x8, addend: 0x0, symName: __ZN4core9ub_checks23maybe_is_nonoverlapping7runtime17hfe5d503ee205f68dE, symObjAddr: 0xB44, symBinAddr: 0x8154, symSize: 0xD8 }
  - { offset: 0x3331E, size: 0x8, addend: 0x0, symName: __ZN8pyo3_ffi10listobject12PyList_Check17h1782fe5a721410c4E, symObjAddr: 0x3DA4, symBinAddr: 0x84BC, symSize: 0x30 }
  - { offset: 0x3387B, size: 0x8, addend: 0x0, symName: '__ZN5alloc3vec16Vec$LT$T$C$A$GT$7set_len18precondition_check17h850e03217398e68fE', symObjAddr: 0x3094, symBinAddr: 0x8334, symSize: 0x60 }
  - { offset: 0x339F0, size: 0x8, addend: 0x0, symName: '__ZN67_$LT$alloc..vec..Vec$LT$T$GT$$u20$as$u20$core..default..Default$GT$7default17ha350699fbe8accfeE', symObjAddr: 0x3B5C, symBinAddr: 0x8484, symSize: 0x14 }
  - { offset: 0x33A12, size: 0x8, addend: 0x0, symName: '__ZN67_$LT$alloc..vec..Vec$LT$T$GT$$u20$as$u20$core..default..Default$GT$7default17ha350699fbe8accfeE', symObjAddr: 0x3B5C, symBinAddr: 0x8484, symSize: 0x14 }
  - { offset: 0x33A33, size: 0x8, addend: 0x0, symName: '__ZN70_$LT$alloc..vec..Vec$LT$T$C$A$GT$$u20$as$u20$core..ops..drop..Drop$GT$4drop17hef98c7816ee87ccaE', symObjAddr: 0x3CA8, symBinAddr: 0x8498, symSize: 0x24 }
  - { offset: 0x33AE9, size: 0x8, addend: 0x0, symName: '__ZN90_$LT$alloc..vec..Vec$LT$T$C$A$GT$$u20$as$u20$core..iter..traits..collect..IntoIterator$GT$9into_iter17haf31bfe8fb714c93E', symObjAddr: 0x3E00, symBinAddr: 0x84EC, symSize: 0x98 }
  - { offset: 0x33E2B, size: 0x8, addend: 0x0, symName: __ZN4pyo310conversion15IntoPyObjectExt17into_bound_py_any17h038e2756e55d61b8E, symObjAddr: 0xC1C, symBinAddr: 0x822C, symSize: 0x54 }
  - { offset: 0x33E96, size: 0x8, addend: 0x0, symName: __ZN4pyo310conversion15IntoPyObjectExt22into_pyobject_or_pyerr17h441ebea4fbda99c9E, symObjAddr: 0xDF4, symBinAddr: 0x8280, symSize: 0x4C }
  - { offset: 0x33F1C, size: 0x8, addend: 0x0, symName: '__ZN4pyo311conversions3std6string68_$LT$impl$u20$pyo3..conversion..IntoPyObject$u20$for$u20$$RF$str$GT$13into_pyobject17h86c38b8fc431d1d5E', symObjAddr: 0x1318, symBinAddr: 0x82CC, symSize: 0x28 }
  - { offset: 0x349F9, size: 0x8, addend: 0x0, symName: '__ZN5alloc3vec12Vec$LT$T$GT$3new17hcbc7518e59411d82E', symObjAddr: 0x1628, symBinAddr: 0x82F4, symSize: 0x14 }
  - { offset: 0x34A82, size: 0x8, addend: 0x0, symName: '__ZN5alloc3vec16Vec$LT$T$C$A$GT$4push17hee3d30d5d280b029E', symObjAddr: 0x2C80, symBinAddr: 0x8308, symSize: 0x2C }
  - { offset: 0x34B05, size: 0x8, addend: 0x0, symName: '__ZN5alloc3vec16Vec$LT$T$C$A$GT$8is_empty17h9ce5a0d98c6a5f68E', symObjAddr: 0x3290, symBinAddr: 0x8394, symSize: 0x20 }
  - { offset: 0x34CBA, size: 0x8, addend: 0x0, symName: '__ZN5alloc3vec16Vec$LT$T$C$A$GT$8push_mut17he5c42bbb75ebb686E', symObjAddr: 0x38F0, symBinAddr: 0x83B4, symSize: 0xD0 }
  - { offset: 0x3515F, size: 0x8, addend: 0x0, symName: '__ZN45_$LT$T$u20$as$u20$alloc..string..ToString$GT$9to_string17h16fb0357a357380cE', symObjAddr: 0x668, symBinAddr: 0x8614, symSize: 0x24 }
  - { offset: 0x351BA, size: 0x8, addend: 0x0, symName: '__ZN76_$LT$alloc..string..String$u20$as$u20$core..convert..From$LT$$RF$str$GT$$GT$4from17h0659397edfe47d60E', symObjAddr: 0x4FEC, symBinAddr: 0x9244, symSize: 0x50 }
  - { offset: 0x352A7, size: 0x8, addend: 0x0, symName: '__ZN55_$LT$$RF$str$u20$as$u20$alloc..string..SpecToString$GT$14spec_to_string17hb52a31ed2f1a1e75E', symObjAddr: 0x42A0, symBinAddr: 0x8F58, symSize: 0x5C }
  - { offset: 0x3540C, size: 0x8, addend: 0x0, symName: '__ZN65_$LT$alloc..string..String$u20$as$u20$core..ops..deref..Deref$GT$5deref17h8bf8e5f8bb524b25E', symObjAddr: 0x4A5C, symBinAddr: 0x9150, symSize: 0x24 }
  - { offset: 0x35440, size: 0x8, addend: 0x0, symName: '__ZN58_$LT$alloc..string..String$u20$as$u20$core..fmt..Debug$GT$3fmt17h64275a07336b94ffE', symObjAddr: 0x42FC, symBinAddr: 0x8FB4, symSize: 0x80 }
  - { offset: 0x355C6, size: 0x8, addend: 0x0, symName: '__ZN60_$LT$alloc..string..String$u20$as$u20$core..fmt..Display$GT$3fmt17h1f463a5f4eb9ed54E', symObjAddr: 0x48CC, symBinAddr: 0x90D0, symSize: 0x80 }
  - { offset: 0x3572B, size: 0x8, addend: 0x0, symName: '__ZN74_$LT$alloc..string..String$u20$as$u20$core..ops..index..Index$LT$I$GT$$GT$5index17hc492f6198546906aE', symObjAddr: 0x4E4C, symBinAddr: 0x91C8, symSize: 0x7C }
  - { offset: 0x35C40, size: 0x8, addend: 0x0, symName: '__ZN5alloc3str83_$LT$impl$u20$core..borrow..Borrow$LT$str$GT$$u20$for$u20$alloc..string..String$GT$6borrow17hf30a471508dc835fE', symObjAddr: 0x43F8, symBinAddr: 0x9034, symSize: 0x2C }
  - { offset: 0x35D4A, size: 0x8, addend: 0x0, symName: '__ZN87_$LT$T$u20$as$u20$alloc..slice..$LT$impl$u20$$u5b$T$u5d$$GT$..to_vec_in..ConvertVec$GT$6to_vec17h9b5dc0efa47ed8bcE', symObjAddr: 0x58A0, symBinAddr: 0x9A34, symSize: 0xF4 }
  - { offset: 0x3646A, size: 0x8, addend: 0x0, symName: '__ZN70_$LT$core..num..error..TryFromIntError$u20$as$u20$core..fmt..Debug$GT$3fmt17h4cd225c478064baaE', symObjAddr: 0x4DAC, symBinAddr: 0x9174, symSize: 0x54 }
  - { offset: 0x36513, size: 0x8, addend: 0x0, symName: '__ZN4core3num23_$LT$impl$u20$usize$GT$13unchecked_add18precondition_check17h8cac2080984d0430E', symObjAddr: 0x26C4, symBinAddr: 0x89FC, symSize: 0x64 }
  - { offset: 0x3726A, size: 0x8, addend: 0x0, symName: '__ZN4core3cmp5impls54_$LT$impl$u20$core..cmp..PartialEq$u20$for$u20$i32$GT$2ne17hace9b72c700e7c8fE', symObjAddr: 0x1770, symBinAddr: 0x8760, symSize: 0x2C }
  - { offset: 0x37307, size: 0x8, addend: 0x0, symName: '__ZN36_$LT$T$u20$as$u20$core..any..Any$GT$7type_id17haa216e30acd358edE', symObjAddr: 0xE4, symBinAddr: 0x8584, symSize: 0x20 }
  - { offset: 0x3735C, size: 0x8, addend: 0x0, symName: '__ZN42_$LT$$RF$T$u20$as$u20$core..fmt..Debug$GT$3fmt17h93f485235affee7aE', symObjAddr: 0x4C0, symBinAddr: 0x85A4, symSize: 0x30 }
  - { offset: 0x373A8, size: 0x8, addend: 0x0, symName: '__ZN45_$LT$$LP$$RP$$u20$as$u20$core..fmt..Debug$GT$3fmt17hb8b115d9994a26d4E', symObjAddr: 0x5E0, symBinAddr: 0x85D4, symSize: 0x40 }
  - { offset: 0x378CE, size: 0x8, addend: 0x0, symName: '__ZN54_$LT$$BP$const$u20$T$u20$as$u20$core..fmt..Pointer$GT$3fmt28_$u7b$$u7b$closure$u7d$$u7d$17heca95361df8e73c8E', symObjAddr: 0x426C, symBinAddr: 0x8F24, symSize: 0x34 }
  - { offset: 0x37980, size: 0x8, addend: 0x0, symName: __ZN4core5slice3raw14from_raw_parts17hcfa8b8add74a28a1E, symObjAddr: 0x2A70, symBinAddr: 0x8A60, symSize: 0x58 }
  - { offset: 0x379C8, size: 0x8, addend: 0x0, symName: __ZN4core5slice3raw14from_raw_parts18precondition_check17hb498b977bdc8ff4aE, symObjAddr: 0x2AC8, symBinAddr: 0x8AB8, symSize: 0x10C }
  - { offset: 0x381DF, size: 0x8, addend: 0x0, symName: __ZN4pyo321interpreter_lifecycle5START17hf1b6999dc069485fE, symObjAddr: 0x81E0, symBinAddr: 0x743A0, symSize: 0x0 }
  - { offset: 0x381EC, size: 0x8, addend: 0x0, symName: __ZN4pyo321interpreter_lifecycle10initialize17h8d8b500bd1226776E, symObjAddr: 0x3078, symBinAddr: 0x8CF8, symSize: 0x1C }
  - { offset: 0x3820A, size: 0x8, addend: 0x0, symName: '__ZN4pyo321interpreter_lifecycle10initialize28_$u7b$$u7b$closure$u7d$$u7d$17h68d16168c052534fE', symObjAddr: 0x3094, symBinAddr: 0x8D14, symSize: 0x38 }
  - { offset: 0x38240, size: 0x8, addend: 0x0, symName: __ZN4pyo321interpreter_lifecycle18ensure_initialized17h3485d83aecc4af7eE, symObjAddr: 0x30CC, symBinAddr: 0x8D4C, symSize: 0x38 }
  - { offset: 0x3825E, size: 0x8, addend: 0x0, symName: '__ZN4pyo321interpreter_lifecycle18ensure_initialized28_$u7b$$u7b$closure$u7d$$u7d$17he5e36846c56f1d4fE', symObjAddr: 0x3104, symBinAddr: 0x8D84, symSize: 0x90 }
  - { offset: 0x384D1, size: 0x8, addend: 0x0, symName: '__ZN4pyo35types5tuple74_$LT$impl$u20$pyo3..conversion..IntoPyObject$u20$for$u20$$LP$T0$C$$RP$$GT$13into_pyobject17hd555924b802b684dE', symObjAddr: 0x3B4C, symBinAddr: 0x8E4C, symSize: 0xD8 }
  - { offset: 0x386FD, size: 0x8, addend: 0x0, symName: '__ZN47_$LT$T$u20$as$u20$pyo3..err..PyErrArguments$GT$9arguments17h6a4ac642af9fd1b2E', symObjAddr: 0x840, symBinAddr: 0x8638, symSize: 0x128 }
  - { offset: 0x3884B, size: 0x8, addend: 0x0, symName: '__ZN78_$LT$pyo3..err..cast_error..DisplayCastError$u20$as$u20$core..fmt..Display$GT$3fmt17h9831da87062c8372E', symObjAddr: 0x503C, symBinAddr: 0x9294, symSize: 0x244 }
  - { offset: 0x3894B, size: 0x8, addend: 0x0, symName: '__ZN78_$LT$pyo3..err..cast_error..DisplayCastError$u20$as$u20$core..fmt..Display$GT$3fmt28_$u7b$$u7b$closure$u7d$$u7d$17h372e71ef1fcdd5f1E', symObjAddr: 0x5280, symBinAddr: 0x94D8, symSize: 0x24 }
  - { offset: 0x3898F, size: 0x8, addend: 0x0, symName: '__ZN78_$LT$pyo3..err..cast_error..DisplayClassInfo$u20$as$u20$core..fmt..Display$GT$3fmt17h33275aed4dcefb24E', symObjAddr: 0x52A4, symBinAddr: 0x94FC, symSize: 0x51C }
  - { offset: 0x38AC8, size: 0x8, addend: 0x0, symName: '__ZN78_$LT$pyo3..err..cast_error..DisplayClassInfo$u20$as$u20$core..fmt..Display$GT$3fmt28_$u7b$$u7b$closure$u7d$$u7d$17h15ed28c103b96540E', symObjAddr: 0x57C0, symBinAddr: 0x9A18, symSize: 0x1C }
  - { offset: 0x38B05, size: 0x8, addend: 0x0, symName: '__ZN87_$LT$pyo3..err..cast_error..CastErrorArguments$u20$as$u20$pyo3..err..PyErrArguments$GT$9arguments17h8f54f565e63d544dE', symObjAddr: 0x5994, symBinAddr: 0x9B28, symSize: 0x1A0 }
  - { offset: 0x38C1A, size: 0x8, addend: 0x0, symName: __ZN4pyo310conversion15IntoPyObjectExt11into_py_any17h3589097f9a67b3aaE, symObjAddr: 0x2D90, symBinAddr: 0x8BC4, symSize: 0x60 }
  - { offset: 0x38C87, size: 0x8, addend: 0x0, symName: __ZN4pyo310conversion15IntoPyObjectExt17into_bound_py_any17hb0847eccf4d1ccc7E, symObjAddr: 0x2DF0, symBinAddr: 0x8C24, symSize: 0x60 }
  - { offset: 0x38D09, size: 0x8, addend: 0x0, symName: '__ZN4pyo311conversions3std6string82_$LT$impl$u20$pyo3..conversion..IntoPyObject$u20$for$u20$alloc..string..String$GT$13into_pyobject17hdc68041c23315952E', symObjAddr: 0x2F40, symBinAddr: 0x8C84, symSize: 0x74 }
  - { offset: 0x39D25, size: 0x8, addend: 0x0, symName: __ZN4core3fmt9Arguments23as_statically_known_str17h126d78808dd10acdE, symObjAddr: 0x1BC8, symBinAddr: 0x878C, symSize: 0x104 }
  - { offset: 0x39E28, size: 0x8, addend: 0x0, symName: __ZN4core3fmt9Arguments3new17h077a6f62415cba78E, symObjAddr: 0x1CE8, symBinAddr: 0x8890, symSize: 0x1C }
  - { offset: 0x39E8E, size: 0x8, addend: 0x0, symName: __ZN4core3fmt9Arguments3new17h14ae120a69a34652E, symObjAddr: 0x1D04, symBinAddr: 0x88AC, symSize: 0x1C }
  - { offset: 0x39F76, size: 0x8, addend: 0x0, symName: __ZN4core3fmt9Arguments3new17h5d4aaac44784a8a2E, symObjAddr: 0x1DAC, symBinAddr: 0x88C8, symSize: 0x1C }
  - { offset: 0x39FC2, size: 0x8, addend: 0x0, symName: __ZN4core3fmt9Arguments3new17h5f99b0aed4ded852E, symObjAddr: 0x1DC8, symBinAddr: 0x88E4, symSize: 0x1C }
  - { offset: 0x3A028, size: 0x8, addend: 0x0, symName: __ZN4core3fmt9Arguments3new17h86c0c1b63087977bE, symObjAddr: 0x1E00, symBinAddr: 0x8900, symSize: 0x1C }
  - { offset: 0x3A144, size: 0x8, addend: 0x0, symName: __ZN4core3fmt9Arguments3new17hc6344f6c5073ade5E, symObjAddr: 0x1EFC, symBinAddr: 0x891C, symSize: 0x1C }
  - { offset: 0x3A246, size: 0x8, addend: 0x0, symName: __ZN4core3fmt9Arguments8from_str17h999693b2c9e560e4E, symObjAddr: 0x1FF8, symBinAddr: 0x8938, symSize: 0x20 }
  - { offset: 0x3A269, size: 0x8, addend: 0x0, symName: __ZN4core3fmt9Formatter9write_fmt17h0a6ba512f8da528dE, symObjAddr: 0x2018, symBinAddr: 0x8958, symSize: 0xA4 }
  - { offset: 0x3A2E5, size: 0x8, addend: 0x0, symName: __ZN4pyo33err10cast_error13CastIntoError3new17hee38d6fc037a2fa7E, symObjAddr: 0x31CC, symBinAddr: 0x8E14, symSize: 0x1C }
  - { offset: 0x3A315, size: 0x8, addend: 0x0, symName: __ZN4pyo33err10cast_error9CastError3new17heae27620afa9a4ebE, symObjAddr: 0x31E8, symBinAddr: 0x8E30, symSize: 0x1C }
  - { offset: 0x3A549, size: 0x8, addend: 0x0, symName: __ZN5alloc6string6String6as_str17h5eccd8ea1732a45dE, symObjAddr: 0x4698, symBinAddr: 0x9060, symSize: 0x70 }
  - { offset: 0x3B0F5, size: 0x8, addend: 0x0, symName: '__ZN4core3str6traits99_$LT$impl$u20$core..slice..index..SliceIndex$LT$str$GT$$u20$for$u20$core..ops..range..RangeFull$GT$5index17h631798999e767f64E', symObjAddr: 0xC1C, symBinAddr: 0xA0C0, symSize: 0x18 }
  - { offset: 0x3C2AA, size: 0x8, addend: 0x0, symName: '__ZN31_$LT$dyn$u20$core..any..Any$GT$12downcast_ref17h321a666c1c2c8763E', symObjAddr: 0x508, symBinAddr: 0x9CC8, symSize: 0xA4 }
  - { offset: 0x3C39B, size: 0x8, addend: 0x0, symName: '__ZN31_$LT$dyn$u20$core..any..Any$GT$12downcast_ref17hd37ee9ce9fdd6b47E', symObjAddr: 0x5AC, symBinAddr: 0x9D6C, symSize: 0xA4 }
  - { offset: 0x3C520, size: 0x8, addend: 0x0, symName: '__ZN54_$LT$dyn$u20$core..any..Any$u2b$core..marker..Send$GT$12downcast_ref17h21c06bd2a49147e6E', symObjAddr: 0x7E04, symBinAddr: 0xB328, symSize: 0x2C }
  - { offset: 0x3C557, size: 0x8, addend: 0x0, symName: '__ZN54_$LT$dyn$u20$core..any..Any$u2b$core..marker..Send$GT$12downcast_ref17heb2c01298906ea08E', symObjAddr: 0x7E30, symBinAddr: 0xB354, symSize: 0x2C }
  - { offset: 0x3C893, size: 0x8, addend: 0x0, symName: '__ZN42_$LT$$RF$T$u20$as$u20$core..fmt..Debug$GT$3fmt17h69c06c7d410ef115E', symObjAddr: 0x814, symBinAddr: 0x9F74, symSize: 0x30 }
  - { offset: 0x3C999, size: 0x8, addend: 0x0, symName: '__ZN50_$LT$$BP$mut$u20$T$u20$as$u20$core..fmt..Debug$GT$3fmt17h83e221260cc2dd18E', symObjAddr: 0x7958, symBinAddr: 0xAE90, symSize: 0x38 }
  - { offset: 0x3CA0B, size: 0x8, addend: 0x0, symName: '__ZN54_$LT$$BP$const$u20$T$u20$as$u20$core..fmt..Pointer$GT$3fmt17h0dbd2fbd216d73fbE', symObjAddr: 0x7D38, symBinAddr: 0xB25C, symSize: 0xCC }
  - { offset: 0x3CB5D, size: 0x8, addend: 0x0, symName: '__ZN50_$LT$T$u20$as$u20$core..convert..Into$LT$U$GT$$GT$4into17h3388e287daaa0522E', symObjAddr: 0x7990, symBinAddr: 0xAEC8, symSize: 0x30 }
  - { offset: 0x3CC9F, size: 0x8, addend: 0x0, symName: '__ZN4pyo33err5PyErr3new28_$u7b$$u7b$closure$u7d$$u7d$17h25c5699c74251e31E', symObjAddr: 0x40E4, symBinAddr: 0xA80C, symSize: 0xC8 }
  - { offset: 0x3CCF7, size: 0x8, addend: 0x0, symName: '__ZN4pyo33err5PyErr3new28_$u7b$$u7b$closure$u7d$$u7d$17h8c034d8c42525895E', symObjAddr: 0x4C60, symBinAddr: 0xA8D4, symSize: 0xC0 }
  - { offset: 0x3CD4F, size: 0x8, addend: 0x0, symName: '__ZN4pyo33err5PyErr3new28_$u7b$$u7b$closure$u7d$$u7d$17he1129824698a57e9E', symObjAddr: 0x5854, symBinAddr: 0xA994, symSize: 0xD4 }
  - { offset: 0x3CDAE, size: 0x8, addend: 0x0, symName: '__ZN4pyo33err5PyErr22print_panic_and_unwind28_$u7b$$u7b$closure$u7d$$u7d$17h42fe5e4a925521b1E', symObjAddr: 0x2494, symBinAddr: 0xA548, symSize: 0x64 }
  - { offset: 0x3CDE4, size: 0x8, addend: 0x0, symName: '__ZN4pyo33err5PyErr22print_panic_and_unwind28_$u7b$$u7b$closure$u7d$$u7d$17hbd48c7b63e14f84fE', symObjAddr: 0x24F8, symBinAddr: 0xA5AC, symSize: 0x7C }
  - { offset: 0x3CE58, size: 0x8, addend: 0x0, symName: '__ZN4pyo33err10cast_error106_$LT$impl$u20$core..convert..From$LT$pyo3..err..cast_error..CastError$GT$$u20$for$u20$pyo3..err..PyErr$GT$4from17h91891f07e8d468d4E', symObjAddr: 0xFD8, symBinAddr: 0xA0D8, symSize: 0xE0 }
  - { offset: 0x3CEA7, size: 0x8, addend: 0x0, symName: '__ZN4pyo33err10cast_error110_$LT$impl$u20$core..convert..From$LT$pyo3..err..cast_error..CastIntoError$GT$$u20$for$u20$pyo3..err..PyErr$GT$4from17he2bd756dd207fd71E', symObjAddr: 0x10B8, symBinAddr: 0xA1B8, symSize: 0xF8 }
  - { offset: 0x3CF60, size: 0x8, addend: 0x0, symName: '__ZN47_$LT$T$u20$as$u20$pyo3..err..PyErrArguments$GT$9arguments17h1e3d004e60b4bf96E', symObjAddr: 0x868, symBinAddr: 0x9FA4, symSize: 0x11C }
  - { offset: 0x3DB66, size: 0x8, addend: 0x0, symName: __ZN4pyo33err15failed_to_fetch17h2fb2c12f9d5f0cebE, symObjAddr: 0x138C, symBinAddr: 0x4A8A0, symSize: 0x18 }
  - { offset: 0x3DB84, size: 0x8, addend: 0x0, symName: __ZN4pyo33err17error_on_minusone17h57a6b4d73da780c3E, symObjAddr: 0x146C, symBinAddr: 0xA2B0, symSize: 0xC8 }
  - { offset: 0x3DBDB, size: 0x8, addend: 0x0, symName: '__ZN53_$LT$pyo3..err..PyErr$u20$as$u20$core..fmt..Debug$GT$3fmt17h6003d2a8395143f5E', symObjAddr: 0x79D4, symBinAddr: 0xAEF8, symSize: 0x40 }
  - { offset: 0x3DC1D, size: 0x8, addend: 0x0, symName: '__ZN53_$LT$pyo3..err..PyErr$u20$as$u20$core..fmt..Debug$GT$3fmt28_$u7b$$u7b$closure$u7d$$u7d$17h7f1d240190366560E', symObjAddr: 0x7A14, symBinAddr: 0xAF38, symSize: 0x178 }
  - { offset: 0x3DC81, size: 0x8, addend: 0x0, symName: '__ZN53_$LT$pyo3..err..PyErr$u20$as$u20$core..fmt..Debug$GT$3fmt28_$u7b$$u7b$closure$u7d$$u7d$28_$u7b$$u7b$closure$u7d$$u7d$17h4cf2d456aef13bffE', symObjAddr: 0x7B8C, symBinAddr: 0xB0B0, symSize: 0x1AC }
  - { offset: 0x3DD77, size: 0x8, addend: 0x0, symName: '__ZN55_$LT$pyo3..err..PyErr$u20$as$u20$core..fmt..Display$GT$3fmt17h4ac6ab71aa68fab0E', symObjAddr: 0x7E5C, symBinAddr: 0xB380, symSize: 0x34 }
  - { offset: 0x3DDB9, size: 0x8, addend: 0x0, symName: '__ZN55_$LT$pyo3..err..PyErr$u20$as$u20$core..fmt..Display$GT$3fmt28_$u7b$$u7b$closure$u7d$$u7d$17h8928bc795cbe4544E', symObjAddr: 0x7E90, symBinAddr: 0xB3B4, symSize: 0x3B0 }
  - { offset: 0x3DF22, size: 0x8, addend: 0x0, symName: '__ZN55_$LT$pyo3..err..PyErr$u20$as$u20$core..fmt..Display$GT$3fmt28_$u7b$$u7b$closure$u7d$$u7d$28_$u7b$$u7b$closure$u7d$$u7d$17ha0006d71e5244ed1E', symObjAddr: 0x8240, symBinAddr: 0xB764, symSize: 0x1C }
  - { offset: 0x3EA0C, size: 0x8, addend: 0x0, symName: '__ZN3std4sync6poison5mutex19MutexGuard$LT$T$GT$3new28_$u7b$$u7b$closure$u7d$$u7d$17he60301931f36a22aE', symObjAddr: 0x7E4, symBinAddr: 0x9F44, symSize: 0x18 }
  - { offset: 0x3EA54, size: 0x8, addend: 0x0, symName: '__ZN3std4sync6poison5mutex19MutexGuard$LT$T$GT$3new28_$u7b$$u7b$closure$u7d$$u7d$17heceacee1820b9978E', symObjAddr: 0x7FC, symBinAddr: 0x9F5C, symSize: 0x18 }
  - { offset: 0x3EAA3, size: 0x8, addend: 0x0, symName: '__ZN87_$LT$std..sync..poison..mutex..MutexGuard$LT$T$GT$$u20$as$u20$core..ops..drop..Drop$GT$4drop17h66ade5012aff9bb5E', symObjAddr: 0x83B4, symBinAddr: 0xB780, symSize: 0x58 }
  - { offset: 0x3EB21, size: 0x8, addend: 0x0, symName: '__ZN87_$LT$std..sync..poison..mutex..MutexGuard$LT$T$GT$$u20$as$u20$core..ops..drop..Drop$GT$4drop17ha6a509d2936d4e25E', symObjAddr: 0x840C, symBinAddr: 0xB7D8, symSize: 0x58 }
  - { offset: 0x3EBA5, size: 0x8, addend: 0x0, symName: '__ZN89_$LT$std..sync..poison..mutex..MutexGuard$LT$T$GT$$u20$as$u20$core..ops..deref..Deref$GT$5deref17h6dd16b290bc12655E', symObjAddr: 0x84F8, symBinAddr: 0xB830, symSize: 0x1C }
  - { offset: 0x3EBF1, size: 0x8, addend: 0x0, symName: '__ZN89_$LT$std..sync..poison..mutex..MutexGuard$LT$T$GT$$u20$as$u20$core..ops..deref..Deref$GT$5deref17h9fd2f790a111fa06E', symObjAddr: 0x8530, symBinAddr: 0xB84C, symSize: 0x1C }
  - { offset: 0x3EC43, size: 0x8, addend: 0x0, symName: '__ZN92_$LT$std..sync..poison..mutex..MutexGuard$LT$T$GT$$u20$as$u20$core..ops..deref..DerefMut$GT$9deref_mut17hc3ae46e812f25a54E', symObjAddr: 0x897C, symBinAddr: 0xB868, symSize: 0x1C }
  - { offset: 0x3EC8F, size: 0x8, addend: 0x0, symName: '__ZN92_$LT$std..sync..poison..mutex..MutexGuard$LT$T$GT$$u20$as$u20$core..ops..deref..DerefMut$GT$9deref_mut17hdccdaa419b3309d0E', symObjAddr: 0x8998, symBinAddr: 0xB884, symSize: 0x1C }
  - { offset: 0x3FAF7, size: 0x8, addend: 0x0, symName: '__ZN3std4sync6poison5mutex14Mutex$LT$T$GT$3new17h25538a23e0097416E', symObjAddr: 0x650, symBinAddr: 0x9E10, symSize: 0x44 }
  - { offset: 0x3FBCE, size: 0x8, addend: 0x0, symName: '__ZN3std4sync6poison5mutex14Mutex$LT$T$GT$3new17h96b3cf543b23aab1E', symObjAddr: 0x694, symBinAddr: 0x9E54, symSize: 0x60 }
  - { offset: 0x3FCDF, size: 0x8, addend: 0x0, symName: '__ZN3std4sync6poison5mutex14Mutex$LT$T$GT$4lock17hf632c4ae3d8e0190E', symObjAddr: 0x73C, symBinAddr: 0x9EB4, symSize: 0x48 }
  - { offset: 0x3FDB1, size: 0x8, addend: 0x0, symName: '__ZN3std4sync6poison5mutex14Mutex$LT$T$GT$4lock17hf73e369a91f9ccfaE', symObjAddr: 0x784, symBinAddr: 0x9EFC, symSize: 0x48 }
  - { offset: 0x3FEC6, size: 0x8, addend: 0x0, symName: __ZN4pyo33err5PyErr10from_state17h40a4869681fc77e9E, symObjAddr: 0x15FC, symBinAddr: 0xA378, symSize: 0x30 }
  - { offset: 0x3FEF7, size: 0x8, addend: 0x0, symName: __ZN4pyo33err5PyErr10normalized17h922897009cb6f575E, symObjAddr: 0x1908, symBinAddr: 0xA3A8, symSize: 0x24 }
  - { offset: 0x3FF42, size: 0x8, addend: 0x0, symName: __ZN4pyo33err5PyErr11is_instance17h8924dcb697be6e97E, symObjAddr: 0x192C, symBinAddr: 0xA3CC, symSize: 0xA0 }
  - { offset: 0x3FFCC, size: 0x8, addend: 0x0, symName: __ZN4pyo33err5PyErr14is_instance_of17h2f225e3ea18d0509E, symObjAddr: 0x1AE4, symBinAddr: 0xA46C, symSize: 0x84 }
  - { offset: 0x40013, size: 0x8, addend: 0x0, symName: __ZN4pyo33err5PyErr16write_unraisable17hffd387bd5c3e42b4E, symObjAddr: 0x221C, symBinAddr: 0xA4F0, symSize: 0x58 }
  - { offset: 0x4006E, size: 0x8, addend: 0x0, symName: __ZN4pyo33err5PyErr22print_panic_and_unwind17h9ca13e6ac588e6f9E, symObjAddr: 0x2274, symBinAddr: 0x4A8B8, symSize: 0x220 }
  - { offset: 0x400F0, size: 0x8, addend: 0x0, symName: __ZN4pyo33err5PyErr3new17h1f103d3aac524733E, symObjAddr: 0x27EC, symBinAddr: 0xA628, symSize: 0xA8 }
  - { offset: 0x4014E, size: 0x8, addend: 0x0, symName: __ZN4pyo33err5PyErr3new17h81cb80e3466a1f1aE, symObjAddr: 0x31E8, symBinAddr: 0xA6D0, symSize: 0xA0 }
  - { offset: 0x401AD, size: 0x8, addend: 0x0, symName: __ZN4pyo33err5PyErr3new17hd0ed3f3bf506903eE, symObjAddr: 0x376C, symBinAddr: 0xA770, symSize: 0x9C }
  - { offset: 0x401FE, size: 0x8, addend: 0x0, symName: __ZN4pyo33err5PyErr4take17h29d5a293aef74e82E, symObjAddr: 0x5ABC, symBinAddr: 0xAA68, symSize: 0x13C }
  - { offset: 0x402AA, size: 0x8, addend: 0x0, symName: __ZN4pyo33err5PyErr5fetch17h3fe23c1b3225e984E, symObjAddr: 0x5CB0, symBinAddr: 0xABA4, symSize: 0x3C }
  - { offset: 0x402E6, size: 0x8, addend: 0x0, symName: __ZN4pyo33err5PyErr5value17h9cd817811cd669ffE, symObjAddr: 0x5D28, symBinAddr: 0xABE0, symSize: 0x28 }
  - { offset: 0x40321, size: 0x8, addend: 0x0, symName: __ZN4pyo33err5PyErr7restore17h3f45655c07bcce96E, symObjAddr: 0x5D7C, symBinAddr: 0xAC08, symSize: 0x38 }
  - { offset: 0x40360, size: 0x8, addend: 0x0, symName: __ZN4pyo33err5PyErr8get_type17hc4270a2d400a953bE, symObjAddr: 0x5DB4, symBinAddr: 0xAC40, symSize: 0x28 }
  - { offset: 0x403A8, size: 0x8, addend: 0x0, symName: __ZN4pyo33err5PyErr8new_type17h274f8370d045f7b2E, symObjAddr: 0x5DDC, symBinAddr: 0xAC68, symSize: 0x200 }
  - { offset: 0x404DF, size: 0x8, addend: 0x0, symName: __ZN4pyo33err5PyErr9traceback17h132da7371e930580E, symObjAddr: 0x61BC, symBinAddr: 0xAE68, symSize: 0x28 }
  - { offset: 0x40844, size: 0x8, addend: 0x0, symName: '__ZN100_$LT$core..array..iter..iter_inner..PolymorphicIter$LT$DATA$GT$$u20$as$u20$core..ops..drop..Drop$GT$4drop17h25e2e038333a8047E', symObjAddr: 0x0, symBinAddr: 0xB8A0, symSize: 0x30 }
  - { offset: 0x40878, size: 0x8, addend: 0x0, symName: '__ZN3std4sync4once4Once15call_once_force28_$u7b$$u7b$closure$u7d$$u7d$17h3406039d6e7e7b68E', symObjAddr: 0xB04, symBinAddr: 0xBB9C, symSize: 0x84 }
  - { offset: 0x4090A, size: 0x8, addend: 0x0, symName: '__ZN3std4sync4once4Once15call_once_force28_$u7b$$u7b$closure$u7d$$u7d$17h3fde765f57552b4bE', symObjAddr: 0xB88, symBinAddr: 0xBC20, symSize: 0x68 }
  - { offset: 0x4099C, size: 0x8, addend: 0x0, symName: '__ZN3std4sync4once4Once15call_once_force28_$u7b$$u7b$closure$u7d$$u7d$17h4fc9510e13c5a156E', symObjAddr: 0xBF0, symBinAddr: 0xBC88, symSize: 0x68 }
  - { offset: 0x40A34, size: 0x8, addend: 0x0, symName: '__ZN3std4sync4once4Once9call_once28_$u7b$$u7b$closure$u7d$$u7d$17h9c666c77a516f4ecE', symObjAddr: 0xF38, symBinAddr: 0xBEC8, symSize: 0x68 }
  - { offset: 0x40AC2, size: 0x8, addend: 0x0, symName: '__ZN3std4sync4once4Once9call_once28_$u7b$$u7b$closure$u7d$$u7d$17hc1c6121c973f1e49E', symObjAddr: 0xFA0, symBinAddr: 0xBF30, symSize: 0x60 }
  - { offset: 0x40E2B, size: 0x8, addend: 0x0, symName: __ZN3std4sync6poison10map_result17h1c943bbd9f8d60cfE, symObjAddr: 0x1000, symBinAddr: 0xBF90, symSize: 0xC4 }
  - { offset: 0x40EBF, size: 0x8, addend: 0x0, symName: __ZN3std4sync6poison10map_result17h80949a9d623b730cE, symObjAddr: 0x10C4, symBinAddr: 0xC054, symSize: 0xC4 }
  - { offset: 0x40F8B, size: 0x8, addend: 0x0, symName: '__ZN76_$LT$std..sync..poison..PoisonError$LT$T$GT$$u20$as$u20$core..fmt..Debug$GT$3fmt17h7bd89f23e62f838fE', symObjAddr: 0x45B0, symBinAddr: 0xC6E0, symSize: 0x50 }
  - { offset: 0x40FCE, size: 0x8, addend: 0x0, symName: '__ZN76_$LT$std..sync..poison..PoisonError$LT$T$GT$$u20$as$u20$core..fmt..Debug$GT$3fmt17h7d42282037ccd7bdE', symObjAddr: 0x4600, symBinAddr: 0xC730, symSize: 0x50 }
  - { offset: 0x423F1, size: 0x8, addend: 0x0, symName: '__ZN4core3ptr8non_null16NonNull$LT$T$GT$13new_unchecked18precondition_check17h0584110ae1b698dcE', symObjAddr: 0x1D40, symBinAddr: 0xC2AC, symSize: 0x58 }
  - { offset: 0x42BEC, size: 0x8, addend: 0x0, symName: '__ZN90_$LT$core..ptr..non_null..NonNull$LT$T$GT$$u20$as$u20$core..convert..From$LT$$RF$T$GT$$GT$4from17h1284fe6eaf1b08c8E', symObjAddr: 0x4998, symBinAddr: 0xC780, symSize: 0x14 }
  - { offset: 0x42C23, size: 0x8, addend: 0x0, symName: '__ZN90_$LT$core..ptr..non_null..NonNull$LT$T$GT$$u20$as$u20$core..convert..From$LT$$RF$T$GT$$GT$4from17h3db0c2eaf73ca1f5E', symObjAddr: 0x49FC, symBinAddr: 0xC794, symSize: 0x14 }
  - { offset: 0x42C5A, size: 0x8, addend: 0x0, symName: '__ZN90_$LT$core..ptr..non_null..NonNull$LT$T$GT$$u20$as$u20$core..convert..From$LT$$RF$T$GT$$GT$4from17h7ebb6fbc2b8552feE', symObjAddr: 0x4A38, symBinAddr: 0xC7A8, symSize: 0x14 }
  - { offset: 0x42C91, size: 0x8, addend: 0x0, symName: '__ZN90_$LT$core..ptr..non_null..NonNull$LT$T$GT$$u20$as$u20$core..convert..From$LT$$RF$T$GT$$GT$4from17h8a36112ddd09490dE', symObjAddr: 0x4A60, symBinAddr: 0xC7BC, symSize: 0x14 }
  - { offset: 0x42CC8, size: 0x8, addend: 0x0, symName: '__ZN90_$LT$core..ptr..non_null..NonNull$LT$T$GT$$u20$as$u20$core..convert..From$LT$$RF$T$GT$$GT$4from17hbc19ace037754fe9E', symObjAddr: 0x4ADC, symBinAddr: 0xC7D0, symSize: 0x14 }
  - { offset: 0x42CFF, size: 0x8, addend: 0x0, symName: '__ZN90_$LT$core..ptr..non_null..NonNull$LT$T$GT$$u20$as$u20$core..convert..From$LT$$RF$T$GT$$GT$4from17hbe7d79fe1c975336E', symObjAddr: 0x4AF0, symBinAddr: 0xC7E4, symSize: 0x14 }
  - { offset: 0x42D36, size: 0x8, addend: 0x0, symName: '__ZN90_$LT$core..ptr..non_null..NonNull$LT$T$GT$$u20$as$u20$core..convert..From$LT$$RF$T$GT$$GT$4from17hcbf5f94d9944692eE', symObjAddr: 0x4B2C, symBinAddr: 0xC7F8, symSize: 0x14 }
  - { offset: 0x42D6D, size: 0x8, addend: 0x0, symName: '__ZN90_$LT$core..ptr..non_null..NonNull$LT$T$GT$$u20$as$u20$core..convert..From$LT$$RF$T$GT$$GT$4from17he2d7301058b218fdE', symObjAddr: 0x4B68, symBinAddr: 0xC80C, symSize: 0x14 }
  - { offset: 0x42DA4, size: 0x8, addend: 0x0, symName: '__ZN90_$LT$core..ptr..non_null..NonNull$LT$T$GT$$u20$as$u20$core..convert..From$LT$$RF$T$GT$$GT$4from17hfe63a2d3db6abea3E', symObjAddr: 0x4BD0, symBinAddr: 0xC820, symSize: 0x14 }
  - { offset: 0x43EEC, size: 0x8, addend: 0x0, symName: '__ZN100_$LT$core..array..iter..iter_inner..PolymorphicIter$LT$DATA$GT$$u20$as$u20$core..ops..drop..Drop$GT$4drop17h25e2e038333a8047E', symObjAddr: 0x0, symBinAddr: 0xB8A0, symSize: 0x30 }
  - { offset: 0x44074, size: 0x8, addend: 0x0, symName: __ZN4core4hint16assert_unchecked18precondition_check17h582c6a8a19f0a25dE, symObjAddr: 0x2768, symBinAddr: 0xC4DC, symSize: 0x58 }
  - { offset: 0x440BF, size: 0x8, addend: 0x0, symName: __ZN4core4hint21unreachable_unchecked18precondition_check17h177be9f983b26eb0E, symObjAddr: 0x27C0, symBinAddr: 0xC534, symSize: 0x3C }
  - { offset: 0x45E30, size: 0x8, addend: 0x0, symName: __ZN3std4sync4once4Once12is_completed17h846187984749aec9E, symObjAddr: 0x660, symBinAddr: 0xB8D0, symSize: 0x38 }
  - { offset: 0x45ED3, size: 0x8, addend: 0x0, symName: __ZN3std4sync4once4Once15call_once_force17h0122de79c26a9d71E, symObjAddr: 0x698, symBinAddr: 0xB908, symSize: 0xEC }
  - { offset: 0x45F98, size: 0x8, addend: 0x0, symName: __ZN3std4sync4once4Once15call_once_force17ha976d3480ec539b0E, symObjAddr: 0x95C, symBinAddr: 0xB9F4, symSize: 0xD4 }
  - { offset: 0x4605D, size: 0x8, addend: 0x0, symName: __ZN3std4sync4once4Once15call_once_force17hbbd16b5b765a9b6bE, symObjAddr: 0xA30, symBinAddr: 0xBAC8, symSize: 0xD4 }
  - { offset: 0x461D2, size: 0x8, addend: 0x0, symName: __ZN3std4sync4once4Once3new17hf1afdce670bee119E, symObjAddr: 0xD60, symBinAddr: 0xBCF0, symSize: 0x28 }
  - { offset: 0x4624A, size: 0x8, addend: 0x0, symName: __ZN3std4sync4once4Once9call_once17h319213eca5ade2aaE, symObjAddr: 0xD88, symBinAddr: 0xBD18, symSize: 0xD4 }
  - { offset: 0x4630F, size: 0x8, addend: 0x0, symName: __ZN3std4sync4once4Once9call_once17he92f7ba33f32cd62E, symObjAddr: 0xE5C, symBinAddr: 0xBDEC, symSize: 0xDC }
  - { offset: 0x464A8, size: 0x8, addend: 0x0, symName: __ZN3std4sync6poison4Flag4done17h1b78db35e238b4daE, symObjAddr: 0x124C, symBinAddr: 0xC118, symSize: 0x8C }
  - { offset: 0x46596, size: 0x8, addend: 0x0, symName: __ZN3std4sync6poison4Flag5guard17h55b77d6ee5796e9bE, symObjAddr: 0x12D8, symBinAddr: 0xC1A4, symSize: 0xCC }
  - { offset: 0x46646, size: 0x8, addend: 0x0, symName: '__ZN4core3ptr8non_null16NonNull$LT$T$GT$13new_unchecked17hd00609ac77fb77aeE', symObjAddr: 0x1D04, symBinAddr: 0xC270, symSize: 0x3C }
  - { offset: 0x466AE, size: 0x8, addend: 0x0, symName: '__ZN4core3ptr8non_null16NonNull$LT$T$GT$20offset_from_unsigned17hc544b3201fa1dc6dE', symObjAddr: 0x21F4, symBinAddr: 0xC304, symSize: 0x7C }
  - { offset: 0x4679D, size: 0x8, addend: 0x0, symName: '__ZN4core3ptr8non_null16NonNull$LT$T$GT$3new17hd4fd64b0eb4899a4E', symObjAddr: 0x2320, symBinAddr: 0xC380, symSize: 0x58 }
  - { offset: 0x46806, size: 0x8, addend: 0x0, symName: '__ZN4core3ptr8non_null16NonNull$LT$T$GT$4cast17h03896067c73219a7E', symObjAddr: 0x238C, symBinAddr: 0xC3D8, symSize: 0x14 }
  - { offset: 0x46855, size: 0x8, addend: 0x0, symName: '__ZN4core3ptr8non_null16NonNull$LT$T$GT$4cast17h0fc8ecd1f36caf93E', symObjAddr: 0x23C8, symBinAddr: 0xC3EC, symSize: 0x14 }
  - { offset: 0x46897, size: 0x8, addend: 0x0, symName: '__ZN4core3ptr8non_null16NonNull$LT$T$GT$4cast17h152e0747d2170b00E', symObjAddr: 0x23DC, symBinAddr: 0xC400, symSize: 0x14 }
  - { offset: 0x46900, size: 0x8, addend: 0x0, symName: '__ZN4core3ptr8non_null16NonNull$LT$T$GT$4cast17h2c7f431ca528c7b7E', symObjAddr: 0x2440, symBinAddr: 0xC414, symSize: 0x14 }
  - { offset: 0x46969, size: 0x8, addend: 0x0, symName: '__ZN4core3ptr8non_null16NonNull$LT$T$GT$4cast17h79414052a9bfc590E', symObjAddr: 0x24E0, symBinAddr: 0xC428, symSize: 0x14 }
  - { offset: 0x4699E, size: 0x8, addend: 0x0, symName: '__ZN4core3ptr8non_null16NonNull$LT$T$GT$4cast17h79e3c4a51056def4E', symObjAddr: 0x24F4, symBinAddr: 0xC43C, symSize: 0x14 }
  - { offset: 0x469ED, size: 0x8, addend: 0x0, symName: '__ZN4core3ptr8non_null16NonNull$LT$T$GT$4cast17h93b64cc38b0ded3cE', symObjAddr: 0x2558, symBinAddr: 0xC450, symSize: 0x14 }
  - { offset: 0x46A22, size: 0x8, addend: 0x0, symName: '__ZN4core3ptr8non_null16NonNull$LT$T$GT$4cast17h98e1a43a1ef43ef0E', symObjAddr: 0x256C, symBinAddr: 0xC464, symSize: 0x14 }
  - { offset: 0x46A64, size: 0x8, addend: 0x0, symName: '__ZN4core3ptr8non_null16NonNull$LT$T$GT$4cast17h9aa9581d02b96314E', symObjAddr: 0x2594, symBinAddr: 0xC478, symSize: 0x14 }
  - { offset: 0x46AA6, size: 0x8, addend: 0x0, symName: '__ZN4core3ptr8non_null16NonNull$LT$T$GT$4cast17ha84a5675395bf8bbE', symObjAddr: 0x25E4, symBinAddr: 0xC48C, symSize: 0x14 }
  - { offset: 0x46AE8, size: 0x8, addend: 0x0, symName: '__ZN4core3ptr8non_null16NonNull$LT$T$GT$4cast17habab87d09b11126bE', symObjAddr: 0x260C, symBinAddr: 0xC4A0, symSize: 0x14 }
  - { offset: 0x46B2A, size: 0x8, addend: 0x0, symName: '__ZN4core3ptr8non_null16NonNull$LT$T$GT$4cast17hef0b1bdd25b7c7a4E', symObjAddr: 0x26AC, symBinAddr: 0xC4B4, symSize: 0x14 }
  - { offset: 0x46B5F, size: 0x8, addend: 0x0, symName: '__ZN4core3ptr8non_null16NonNull$LT$T$GT$4cast17hf4fcf5e941371a37E', symObjAddr: 0x26D4, symBinAddr: 0xC4C8, symSize: 0x14 }
  - { offset: 0x46CD7, size: 0x8, addend: 0x0, symName: '__ZN4core5array4iter10iter_inner78PolymorphicIter$LT$$u5b$core..mem..maybe_uninit..MaybeUninit$LT$T$GT$$u5d$$GT$4next17h6d018b0e73d0bcc4E', symObjAddr: 0x29EC, symBinAddr: 0xC570, symSize: 0x170 }
  - { offset: 0x4714E, size: 0x8, addend: 0x0, symName: '__ZN127_$LT$pyo3..instance..Bound$LT$pyo3..types..traceback..PyTraceback$GT$$u20$as$u20$pyo3..types..traceback..PyTracebackMethods$GT$6format8INTERNED17h5009debbefe2ea9dE', symObjAddr: 0x86A8, symBinAddr: 0x743A8, symSize: 0x0 }
  - { offset: 0x47168, size: 0x8, addend: 0x0, symName: '__ZN127_$LT$pyo3..instance..Bound$LT$pyo3..types..traceback..PyTraceback$GT$$u20$as$u20$pyo3..types..traceback..PyTracebackMethods$GT$6format8INTERNED17h61545495dfcc2997E', symObjAddr: 0x86C8, symBinAddr: 0x743C8, symSize: 0x0 }
  - { offset: 0x47182, size: 0x8, addend: 0x0, symName: '__ZN127_$LT$pyo3..instance..Bound$LT$pyo3..types..traceback..PyTraceback$GT$$u20$as$u20$pyo3..types..traceback..PyTracebackMethods$GT$6format8INTERNED17hdc0a3b8c88e902b3E', symObjAddr: 0x86E8, symBinAddr: 0x743E8, symSize: 0x0 }
  - { offset: 0x471BE, size: 0x8, addend: 0x0, symName: __ZN4pyo35types6module7__all__8INTERNED17h18c0f83cad7b3ebdE, symObjAddr: 0x8708, symBinAddr: 0x74408, symSize: 0x0 }
  - { offset: 0x471D6, size: 0x8, addend: 0x0, symName: '__ZN115_$LT$pyo3..instance..Bound$LT$pyo3..types..module..PyModule$GT$$u20$as$u20$pyo3..types..module..PyModuleMethods$GT$3add5inner17hc5ce2f966be55475E', symObjAddr: 0x424, symBinAddr: 0xC834, symSize: 0x140 }
  - { offset: 0x472FE, size: 0x8, addend: 0x0, symName: __ZN4pyo35types6module7__all__17h0de54139b39c45e6E, symObjAddr: 0x3C74, symBinAddr: 0xD378, symSize: 0x24 }
  - { offset: 0x4733D, size: 0x8, addend: 0x0, symName: '__ZN79_$LT$pyo3..types..module..PyModule$u20$as$u20$pyo3..type_object..PyTypeInfo$GT$10is_type_of17h34fff9184a3a226eE', symObjAddr: 0x5A58, symBinAddr: 0xD5F8, symSize: 0x30 }
  - { offset: 0x47369, size: 0x8, addend: 0x0, symName: '__ZN79_$LT$pyo3..types..module..PyModule$u20$as$u20$pyo3..type_object..PyTypeInfo$GT$15type_object_raw17hda02fee93914ef5aE', symObjAddr: 0x5A88, symBinAddr: 0xD628, symSize: 0x24 }
  - { offset: 0x473A5, size: 0x8, addend: 0x0, symName: '__ZN79_$LT$pyo3..types..module..PyModule$u20$as$u20$pyo3..type_object..PyTypeInfo$GT$15type_object_raw28_$u7b$$u7b$closure$u7d$$u7d$17h648bfdf46c78ac7dE', symObjAddr: 0x5AAC, symBinAddr: 0xD64C, symSize: 0x18 }
  - { offset: 0x4743F, size: 0x8, addend: 0x0, symName: '__ZN75_$LT$pyo3..types..none..PyNone$u20$as$u20$pyo3..type_object..PyTypeInfo$GT$15type_object_raw17hce7ece57679d71feE', symObjAddr: 0x5A38, symBinAddr: 0xD5D8, symSize: 0x20 }
  - { offset: 0x47C0E, size: 0x8, addend: 0x0, symName: __ZN4pyo311type_object10PyTypeInfo11type_object17h8347dd0705a8a620E, symObjAddr: 0x391C, symBinAddr: 0xD318, symSize: 0x30 }
  - { offset: 0x47C4E, size: 0x8, addend: 0x0, symName: __ZN4pyo311type_object10PyTypeInfo11type_object17hab535ac88e878dcdE, symObjAddr: 0x394C, symBinAddr: 0xD348, symSize: 0x30 }
  - { offset: 0x47C94, size: 0x8, addend: 0x0, symName: '__ZN52_$LT$T$u20$as$u20$pyo3..type_object..PyTypeCheck$GT$10type_check17hca6b76b9f93cdc72E', symObjAddr: 0x52E8, symBinAddr: 0xD494, symSize: 0x24 }
  - { offset: 0x47CC9, size: 0x8, addend: 0x0, symName: '__ZN52_$LT$T$u20$as$u20$pyo3..type_object..PyTypeCheck$GT$16classinfo_object17h8ee421082a9b08ddE', symObjAddr: 0x536C, symBinAddr: 0xD4B8, symSize: 0x20 }
  - { offset: 0x47D15, size: 0x8, addend: 0x0, symName: '__ZN87_$LT$$BP$mut$u20$pyo3_ffi..object..PyObject$u20$as$u20$pyo3..ffi_ptr_ext..FfiPtrExt$GT$12assume_owned17h236ac0fc6df91f80E', symObjAddr: 0x5DA8, symBinAddr: 0xD664, symSize: 0x24 }
  - { offset: 0x47D5A, size: 0x8, addend: 0x0, symName: '__ZN87_$LT$$BP$mut$u20$pyo3_ffi..object..PyObject$u20$as$u20$pyo3..ffi_ptr_ext..FfiPtrExt$GT$19assume_owned_or_err17h66580496f0708d0eE', symObjAddr: 0x5DF0, symBinAddr: 0xD688, symSize: 0x24 }
  - { offset: 0x47D9F, size: 0x8, addend: 0x0, symName: '__ZN87_$LT$$BP$mut$u20$pyo3_ffi..object..PyObject$u20$as$u20$pyo3..ffi_ptr_ext..FfiPtrExt$GT$19assume_owned_or_opt17h21ca9fcf8432c677E', symObjAddr: 0x5E14, symBinAddr: 0xD6AC, symSize: 0x24 }
  - { offset: 0x47DE4, size: 0x8, addend: 0x0, symName: '__ZN87_$LT$$BP$mut$u20$pyo3_ffi..object..PyObject$u20$as$u20$pyo3..ffi_ptr_ext..FfiPtrExt$GT$25assume_borrowed_unchecked17hd6d0e4c166597de9E', symObjAddr: 0x5E80, symBinAddr: 0xD6D0, symSize: 0x24 }
  - { offset: 0x48CB4, size: 0x8, addend: 0x0, symName: '__ZN145_$LT$core..option..Option$LT$T$GT$$u20$as$u20$core..ops..try_trait..FromResidual$LT$core..option..Option$LT$core..convert..Infallible$GT$$GT$$GT$13from_residual17hc1756ce9d8f1c847E', symObjAddr: 0x9C4, symBinAddr: 0xC974, symSize: 0x10 }
  - { offset: 0x49A2F, size: 0x8, addend: 0x0, symName: '__ZN66_$LT$core..option..Option$LT$T$GT$$u20$as$u20$core..fmt..Debug$GT$3fmt17h87b8f80e6a44bfa1E', symObjAddr: 0x582C, symBinAddr: 0xD4F8, symSize: 0xA0 }
  - { offset: 0x49A99, size: 0x8, addend: 0x0, symName: '__ZN75_$LT$core..option..Option$LT$T$GT$$u20$as$u20$core..ops..try_trait..Try$GT$6branch17hed84d7e951d19719E', symObjAddr: 0x59F8, symBinAddr: 0xD598, symSize: 0x40 }
  - { offset: 0x49C22, size: 0x8, addend: 0x0, symName: '__ZN4core3ptr7mut_ptr31_$LT$impl$u20$$BP$mut$u20$T$GT$7is_null17hd821ea94c0bb70efE', symObjAddr: 0xBC4, symBinAddr: 0xC990, symSize: 0x18 }
  - { offset: 0x49F81, size: 0x8, addend: 0x0, symName: '__ZN53_$LT$T$u20$as$u20$core..convert..TryInto$LT$U$GT$$GT$8try_into17h5371ae0155ff20a3E', symObjAddr: 0x53D4, symBinAddr: 0xD4D8, symSize: 0x20 }
  - { offset: 0x4A687, size: 0x8, addend: 0x0, symName: '__ZN47_$LT$$LP$$RP$$u20$as$u20$core..unit..IsUnit$GT$7is_unit17h2bfd3545a2f2410aE', symObjAddr: 0xA54, symBinAddr: 0xC984, symSize: 0xC }
  - { offset: 0x4A906, size: 0x8, addend: 0x0, symName: __ZN8pyo3_ffi6object10Py_IS_TYPE17h2bd0c68ba31c6616E, symObjAddr: 0x5EA4, symBinAddr: 0xD6F4, symSize: 0x38 }
  - { offset: 0x4A940, size: 0x8, addend: 0x0, symName: __ZN8pyo3_ffi6object12PyType_Check17h207a90c0aad8acb5E, symObjAddr: 0x5EDC, symBinAddr: 0xD72C, symSize: 0x30 }
  - { offset: 0x4A96E, size: 0x8, addend: 0x0, symName: __ZN8pyo3_ffi6object17PyType_HasFeature17h3441ef530cb71235E, symObjAddr: 0x5F0C, symBinAddr: 0xD75C, symSize: 0x8C }
  - { offset: 0x4A9C9, size: 0x8, addend: 0x0, symName: __ZN8pyo3_ffi6object18PyObject_TypeCheck17hc0326e17b3ab10a7E, symObjAddr: 0x5FA4, symBinAddr: 0xD7E8, symSize: 0x70 }
  - { offset: 0x4AA06, size: 0x8, addend: 0x0, symName: __ZN8pyo3_ffi6object19PyType_FastSubclass17h6ed3ae57fa7dc1f4E, symObjAddr: 0x6014, symBinAddr: 0xD858, symSize: 0x28 }
  - { offset: 0x4AA43, size: 0x8, addend: 0x0, symName: __ZN8pyo3_ffi6object7Py_None17h86910193596a4e5fE, symObjAddr: 0x6070, symBinAddr: 0xD880, symSize: 0xC }
  - { offset: 0x4AA61, size: 0x8, addend: 0x0, symName: __ZN8pyo3_ffi6object7Py_SIZE17h066e45661232c71eE, symObjAddr: 0x607C, symBinAddr: 0xD88C, symSize: 0x1D4 }
  - { offset: 0x4AB0F, size: 0x8, addend: 0x0, symName: __ZN8pyo3_ffi6object7Py_TYPE17h2cfbf5cc9e4f61caE, symObjAddr: 0x6250, symBinAddr: 0xDA60, symSize: 0x74 }
  - { offset: 0x4BD93, size: 0x8, addend: 0x0, symName: '__ZN4core6option15Option$LT$T$GT$11map_or_else17h26f0b75821191ba1E', symObjAddr: 0x1470, symBinAddr: 0xC9A8, symSize: 0xC0 }
  - { offset: 0x4BE16, size: 0x8, addend: 0x0, symName: '__ZN4core6option15Option$LT$T$GT$11map_or_else17h30d04b4634d1732aE', symObjAddr: 0x1530, symBinAddr: 0xCA68, symSize: 0xC0 }
  - { offset: 0x4BF15, size: 0x8, addend: 0x0, symName: '__ZN4core6option15Option$LT$T$GT$14unwrap_or_else17h81b335e29911f446E', symObjAddr: 0x19D8, symBinAddr: 0xCB28, symSize: 0x54 }
  - { offset: 0x4BF5A, size: 0x8, addend: 0x0, symName: '__ZN4core6option15Option$LT$T$GT$14unwrap_or_else17h998ae383613aeca5E', symObjAddr: 0x1A84, symBinAddr: 0xCB7C, symSize: 0x58 }
  - { offset: 0x4BF9E, size: 0x8, addend: 0x0, symName: '__ZN4core6option15Option$LT$T$GT$14unwrap_or_else17h9a3006472f27754eE', symObjAddr: 0x1ADC, symBinAddr: 0xCBD4, symSize: 0x68 }
  - { offset: 0x4BFFD, size: 0x8, addend: 0x0, symName: '__ZN4core6option15Option$LT$T$GT$14unwrap_or_else17hb400569856913d7fE', symObjAddr: 0x1B44, symBinAddr: 0xCC3C, symSize: 0x6C }
  - { offset: 0x4C05C, size: 0x8, addend: 0x0, symName: '__ZN4core6option15Option$LT$T$GT$16unwrap_unchecked17h37de36f5bc106ebcE', symObjAddr: 0x1C58, symBinAddr: 0xCCA8, symSize: 0x4C }
  - { offset: 0x4C09D, size: 0x8, addend: 0x0, symName: '__ZN4core6option15Option$LT$T$GT$16unwrap_unchecked17h4aca4f8a168fae3bE', symObjAddr: 0x1CA4, symBinAddr: 0xCCF4, symSize: 0x60 }
  - { offset: 0x4C0DF, size: 0x8, addend: 0x0, symName: '__ZN4core6option15Option$LT$T$GT$16unwrap_unchecked17h9210ce7163adcd02E', symObjAddr: 0x1DB0, symBinAddr: 0xCD54, symSize: 0x4C }
  - { offset: 0x4C120, size: 0x8, addend: 0x0, symName: '__ZN4core6option15Option$LT$T$GT$16unwrap_unchecked17hd53c99805e2df404E', symObjAddr: 0x1E48, symBinAddr: 0xCDA0, symSize: 0x5C }
  - { offset: 0x4C180, size: 0x8, addend: 0x0, symName: '__ZN4core6option15Option$LT$T$GT$3map17h1aea2cfbb9f4e646E', symObjAddr: 0x205C, symBinAddr: 0xCDFC, symSize: 0x50 }
  - { offset: 0x4C203, size: 0x8, addend: 0x0, symName: '__ZN4core6option15Option$LT$T$GT$3map17h4e5da99f340e727cE', symObjAddr: 0x21A4, symBinAddr: 0xCE4C, symSize: 0x78 }
  - { offset: 0x4C286, size: 0x8, addend: 0x0, symName: '__ZN4core6option15Option$LT$T$GT$3map17h8576bd8f03e9bdedE', symObjAddr: 0x231C, symBinAddr: 0xCEC4, symSize: 0x50 }
  - { offset: 0x4C309, size: 0x8, addend: 0x0, symName: '__ZN4core6option15Option$LT$T$GT$3map17hb361a8787ad8dfdaE', symObjAddr: 0x23BC, symBinAddr: 0xCF14, symSize: 0x5C }
  - { offset: 0x4C381, size: 0x8, addend: 0x0, symName: '__ZN4core6option15Option$LT$T$GT$4take17h3f12532a19da5f64E', symObjAddr: 0x24F0, symBinAddr: 0xCF70, symSize: 0x5C }
  - { offset: 0x4C3E5, size: 0x8, addend: 0x0, symName: '__ZN4core6option15Option$LT$T$GT$4take17h7de9abe0ad5c50b2E', symObjAddr: 0x25A8, symBinAddr: 0xCFCC, symSize: 0x3C }
  - { offset: 0x4C43C, size: 0x8, addend: 0x0, symName: '__ZN4core6option15Option$LT$T$GT$4take17hdff51960a5423a08E', symObjAddr: 0x2738, symBinAddr: 0xD008, symSize: 0x3C }
  - { offset: 0x4C4A0, size: 0x8, addend: 0x0, symName: '__ZN4core6option15Option$LT$T$GT$6as_ref17h6b249163488a700aE', symObjAddr: 0x2840, symBinAddr: 0xD044, symSize: 0x4C }
  - { offset: 0x4C511, size: 0x8, addend: 0x0, symName: '__ZN4core6option15Option$LT$T$GT$6as_ref17hcc76cb9bfe83a7ffE', symObjAddr: 0x2970, symBinAddr: 0xD090, symSize: 0x4C }
  - { offset: 0x4C568, size: 0x8, addend: 0x0, symName: '__ZN4core6option15Option$LT$T$GT$6as_ref17hd60b4b7915b93f5eE', symObjAddr: 0x29BC, symBinAddr: 0xD0DC, symSize: 0x4C }
  - { offset: 0x4C5F3, size: 0x8, addend: 0x0, symName: '__ZN4core6option15Option$LT$T$GT$6as_ref17hf4cab5c1ed8648f2E', symObjAddr: 0x2A08, symBinAddr: 0xD128, symSize: 0x4C }
  - { offset: 0x4C63D, size: 0x8, addend: 0x0, symName: '__ZN4core6option15Option$LT$T$GT$6expect17ha69bb1dd55f2a440E', symObjAddr: 0x2AFC, symBinAddr: 0xD174, symSize: 0x5C }
  - { offset: 0x4C678, size: 0x8, addend: 0x0, symName: '__ZN4core6option15Option$LT$T$GT$6expect17hf6a4d50fac8726b2E', symObjAddr: 0x2B58, symBinAddr: 0xD1D0, symSize: 0x60 }
  - { offset: 0x4C6FC, size: 0x8, addend: 0x0, symName: '__ZN4core6option15Option$LT$T$GT$6map_or17h7cc133b432407f66E', symObjAddr: 0x2D98, symBinAddr: 0xD230, symSize: 0x9C }
  - { offset: 0x4C77B, size: 0x8, addend: 0x0, symName: '__ZN4core6option15Option$LT$T$GT$7is_some17h38d1ad93e60a8b23E', symObjAddr: 0x2EF8, symBinAddr: 0xD2CC, symSize: 0x28 }
  - { offset: 0x4C7C1, size: 0x8, addend: 0x0, symName: '__ZN4core6option15Option$LT$T$GT$7replace17hf8ed62729294cb4aE', symObjAddr: 0x2F90, symBinAddr: 0xD2F4, symSize: 0x24 }
  - { offset: 0x4C82E, size: 0x8, addend: 0x0, symName: __ZN4pyo35types6module8PyModule6import17hf9d1a88c4bdd6fb9E, symObjAddr: 0x3F8C, symBinAddr: 0xD39C, symSize: 0xF8 }
  - { offset: 0x4D6F5, size: 0x8, addend: 0x0, symName: '__ZN4core3ptr7mut_ptr31_$LT$impl$u20$$BP$mut$u20$T$GT$6offset18precondition_check17h0a9c22216c08e02dE', symObjAddr: 0xA8C, symBinAddr: 0xDB40, symSize: 0xC4 }
  - { offset: 0x4E3F8, size: 0x8, addend: 0x0, symName: '__ZN152_$LT$core..result..Result$LT$pyo3..instance..Bound$LT$pyo3..types..any..PyAny$GT$$C$pyo3..err..PyErr$GT$$u20$as$u20$pyo3..py_result_ext..PyResultExt$GT$19cast_into_unchecked28_$u7b$$u7b$closure$u7d$$u7d$17h8b3b138ce7ffa7bcE', symObjAddr: 0x6C4, symBinAddr: 0xDAD4, symSize: 0x24 }
  - { offset: 0x4E437, size: 0x8, addend: 0x0, symName: '__ZN152_$LT$core..result..Result$LT$pyo3..instance..Bound$LT$pyo3..types..any..PyAny$GT$$C$pyo3..err..PyErr$GT$$u20$as$u20$pyo3..py_result_ext..PyResultExt$GT$19cast_into_unchecked28_$u7b$$u7b$closure$u7d$$u7d$17ha2c65f029c45ea4aE', symObjAddr: 0x70C, symBinAddr: 0xDAF8, symSize: 0x24 }
  - { offset: 0x4E476, size: 0x8, addend: 0x0, symName: '__ZN152_$LT$core..result..Result$LT$pyo3..instance..Bound$LT$pyo3..types..any..PyAny$GT$$C$pyo3..err..PyErr$GT$$u20$as$u20$pyo3..py_result_ext..PyResultExt$GT$19cast_into_unchecked28_$u7b$$u7b$closure$u7d$$u7d$17hdc0c7ec89ffaf714E', symObjAddr: 0x754, symBinAddr: 0xDB1C, symSize: 0x24 }
  - { offset: 0x4E668, size: 0x8, addend: 0x0, symName: '__ZN4pyo34sync9once_lock19PyOnceLock$LT$T$GT$11get_or_init28_$u7b$$u7b$closure$u7d$$u7d$17h6beea2b6b4452c81E', symObjAddr: 0x2178, symBinAddr: 0xDDD8, symSize: 0x28 }
  - { offset: 0x4E6C7, size: 0x8, addend: 0x0, symName: '__ZN4pyo34sync9once_lock19PyOnceLock$LT$T$GT$11get_or_init28_$u7b$$u7b$closure$u7d$$u7d$17hda12f8a401276b85E', symObjAddr: 0x21A0, symBinAddr: 0xDE00, symSize: 0x38 }
  - { offset: 0x4E75D, size: 0x8, addend: 0x0, symName: __ZN4pyo34sync9once_lock26init_once_cell_py_attached17h24216f03a6c976caE, symObjAddr: 0x2668, symBinAddr: 0x4AAD8, symSize: 0xB4 }
  - { offset: 0x4E7E0, size: 0x8, addend: 0x0, symName: __ZN4pyo34sync9once_lock26init_once_cell_py_attached17hb06a346d14172e01E, symObjAddr: 0x271C, symBinAddr: 0x4AB8C, symSize: 0xAC }
  - { offset: 0x4E867, size: 0x8, addend: 0x0, symName: '__ZN4pyo34sync9once_lock26init_once_cell_py_attached28_$u7b$$u7b$closure$u7d$$u7d$17h67496bb574ef14eaE', symObjAddr: 0x27C8, symBinAddr: 0xDE38, symSize: 0x80 }
  - { offset: 0x4E8B7, size: 0x8, addend: 0x0, symName: '__ZN4pyo34sync9once_lock26init_once_cell_py_attached28_$u7b$$u7b$closure$u7d$$u7d$17hf9b890abb8c97ccdE', symObjAddr: 0x2848, symBinAddr: 0xDEB8, symSize: 0x90 }
  - { offset: 0x4E913, size: 0x8, addend: 0x0, symName: '__ZN4pyo34sync8Interned3get28_$u7b$$u7b$closure$u7d$$u7d$17hd74ab55ee060c599E', symObjAddr: 0x1F9C, symBinAddr: 0xDC4C, symSize: 0x34 }
  - { offset: 0x4F259, size: 0x8, addend: 0x0, symName: __ZN8pyo3_ffi13unicodeobject15PyUnicode_Check17h2f541db11cc963feE, symObjAddr: 0x93C8, symBinAddr: 0xDF48, symSize: 0x30 }
  - { offset: 0x4F28B, size: 0x8, addend: 0x0, symName: __ZN8pyo3_ffi8pyerrors22PyExceptionClass_Check17h63ebc55afb0e0661E, symObjAddr: 0x94FC, symBinAddr: 0xDF78, symSize: 0x60 }
  - { offset: 0x4F91B, size: 0x8, addend: 0x0, symName: __ZN4pyo34sync8Interned3get17hb3a5a91c038d3bdeE, symObjAddr: 0x1F54, symBinAddr: 0xDC04, symSize: 0x48 }
  - { offset: 0x4F970, size: 0x8, addend: 0x0, symName: '__ZN4pyo34sync9once_lock19PyOnceLock$LT$T$GT$11get_or_init17h120c449bea2f0d91E', symObjAddr: 0x2020, symBinAddr: 0xDC80, symSize: 0xB0 }
  - { offset: 0x4F9D9, size: 0x8, addend: 0x0, symName: '__ZN4pyo34sync9once_lock19PyOnceLock$LT$T$GT$11get_or_init17hc2fb6fd60714c2a5E', symObjAddr: 0x20D0, symBinAddr: 0xDD30, symSize: 0xA8 }
  - { offset: 0x4FB25, size: 0x8, addend: 0x0, symName: '__ZN71_$LT$pyo3..impl_..panic..PanicTrap$u20$as$u20$core..ops..drop..Drop$GT$4drop17h0f1a073216646dcdE', symObjAddr: 0x80A0, symBinAddr: 0xFA50, symSize: 0x20 }
  - { offset: 0x51667, size: 0x8, addend: 0x0, symName: '__ZN4core3ptr101drop_in_place$LT$core..result..Result$LT$alloc..borrow..Cow$LT$str$GT$$C$$RF$pyo3..err..PyErr$GT$$GT$17h4de59bb667f4e767E', symObjAddr: 0x2E4C, symBinAddr: 0xEB2C, symSize: 0x4C }
  - { offset: 0x51696, size: 0x8, addend: 0x0, symName: '__ZN4core3ptr101drop_in_place$LT$std..sys..sync..once_box..OnceBox$LT$std..sys..pal..unix..sync..mutex..Mutex$GT$$GT$17ha239b52b520c6dc9E', symObjAddr: 0x2F04, symBinAddr: 0xEB78, symSize: 0x24 }
  - { offset: 0x516C5, size: 0x8, addend: 0x0, symName: '__ZN4core3ptr104drop_in_place$LT$core..option..Option$LT$pyo3..instance..Py$LT$pyo3..types..string..PyString$GT$$GT$$GT$17h85720d4286077759E', symObjAddr: 0x3004, symBinAddr: 0xEB9C, symSize: 0x44 }
  - { offset: 0x516F4, size: 0x8, addend: 0x0, symName: '__ZN4core3ptr106drop_in_place$LT$alloc..vec..Vec$LT$core..ptr..non_null..NonNull$LT$pyo3_ffi..object..PyObject$GT$$GT$$GT$17he32e78f0112fd45eE', symObjAddr: 0x3048, symBinAddr: 0xEBE0, symSize: 0x5C }
  - { offset: 0x51723, size: 0x8, addend: 0x0, symName: '__ZN4core3ptr106drop_in_place$LT$core..option..Option$LT$pyo3..instance..Py$LT$pyo3..types..typeobject..PyType$GT$$GT$$GT$17h6a41c6f7bac82733E', symObjAddr: 0x30A4, symBinAddr: 0xEC3C, symSize: 0x44 }
  - { offset: 0x51752, size: 0x8, addend: 0x0, symName: '__ZN4core3ptr107drop_in_place$LT$core..pin..Pin$LT$alloc..boxed..Box$LT$std..sys..pal..unix..sync..mutex..Mutex$GT$$GT$$GT$17h27b9cf9587489215E', symObjAddr: 0x3150, symBinAddr: 0xEC80, symSize: 0x24 }
  - { offset: 0x51781, size: 0x8, addend: 0x0, symName: '__ZN4core3ptr109drop_in_place$LT$core..iter..adapters..enumerate..Enumerate$LT$pyo3..types..tuple..BoundTupleIterator$GT$$GT$17h39f8b1ac9db14249E', symObjAddr: 0x3260, symBinAddr: 0xECA4, symSize: 0x24 }
  - { offset: 0x517B0, size: 0x8, addend: 0x0, symName: '__ZN4core3ptr113drop_in_place$LT$alloc..raw_vec..RawVec$LT$core..ptr..non_null..NonNull$LT$pyo3_ffi..object..PyObject$GT$$GT$$GT$17h2820b3fe1b9d8356E', symObjAddr: 0x33AC, symBinAddr: 0xECC8, symSize: 0x24 }
  - { offset: 0x517DF, size: 0x8, addend: 0x0, symName: '__ZN4core3ptr113drop_in_place$LT$std..sync..poison..mutex..Mutex$LT$core..option..Option$LT$std..thread..id..ThreadId$GT$$GT$$GT$17hcfec1cd9c22352e7E', symObjAddr: 0x33F4, symBinAddr: 0xECEC, symSize: 0x24 }
  - { offset: 0x5180E, size: 0x8, addend: 0x0, symName: '__ZN4core3ptr116drop_in_place$LT$core..cell..UnsafeCell$LT$core..option..Option$LT$pyo3..err..err_state..PyErrStateInner$GT$$GT$$GT$17h075fd6cdfa828a89E', symObjAddr: 0x3460, symBinAddr: 0xED10, symSize: 0x24 }
  - { offset: 0x5183D, size: 0x8, addend: 0x0, symName: '__ZN4core3ptr118drop_in_place$LT$core..array..iter..IntoIter$LT$pyo3..instance..Bound$LT$pyo3..types..any..PyAny$GT$$C$1_usize$GT$$GT$17h02df64fe8dc99df9E', symObjAddr: 0x3630, symBinAddr: 0xED34, symSize: 0x24 }
  - { offset: 0x5186C, size: 0x8, addend: 0x0, symName: '__ZN4core3ptr118drop_in_place$LT$std..sync..poison..mutex..MutexGuard$LT$core..option..Option$LT$std..thread..id..ThreadId$GT$$GT$$GT$17h44d36970d7be2be0E', symObjAddr: 0x3678, symBinAddr: 0xED58, symSize: 0x24 }
  - { offset: 0x5189B, size: 0x8, addend: 0x0, symName: '__ZN4core3ptr122drop_in_place$LT$alloc..vec..into_iter..IntoIter$LT$core..ptr..non_null..NonNull$LT$pyo3_ffi..object..PyObject$GT$$GT$$GT$17h6528749271bfbd23E', symObjAddr: 0x3774, symBinAddr: 0xED7C, symSize: 0x24 }
  - { offset: 0x518CA, size: 0x8, addend: 0x0, symName: '__ZN4core3ptr126drop_in_place$LT$core..result..Result$LT$pyo3..instance..Bound$LT$pyo3..types..string..PyString$GT$$C$pyo3..err..PyErr$GT$$GT$17h1c4c1a443801792aE', symObjAddr: 0x381C, symBinAddr: 0xEDA0, symSize: 0x50 }
  - { offset: 0x518F9, size: 0x8, addend: 0x0, symName: '__ZN4core3ptr135drop_in_place$LT$core..option..Option$LT$core..pin..Pin$LT$alloc..boxed..Box$LT$std..sys..pal..unix..sync..mutex..Mutex$GT$$GT$$GT$$GT$17he6d6af5e682aaa8fE', symObjAddr: 0x39C4, symBinAddr: 0xEDF0, symSize: 0x44 }
  - { offset: 0x51928, size: 0x8, addend: 0x0, symName: '__ZN4core3ptr141drop_in_place$LT$pyo3..err..PyErr..new$LT$pyo3..panic..PanicException$C$$LP$alloc..string..String$C$$RP$$GT$..$u7b$$u7b$closure$u7d$$u7d$$GT$17h425ca307dac4ec7bE', symObjAddr: 0x3CB0, symBinAddr: 0xEE34, symSize: 0x24 }
  - { offset: 0x51957, size: 0x8, addend: 0x0, symName: '__ZN4core3ptr144drop_in_place$LT$core..result..Result$LT$$RF$pyo3..instance..Bound$LT$pyo3..types..tuple..PyTuple$GT$$C$pyo3..err..cast_error..CastError$GT$$GT$17hf1c1a2c8a1771eb9E', symObjAddr: 0x3D80, symBinAddr: 0xEE58, symSize: 0x44 }
  - { offset: 0x51986, size: 0x8, addend: 0x0, symName: '__ZN4core3ptr148drop_in_place$LT$core..result..Result$LT$$RF$pyo3..instance..Bound$LT$pyo3..types..typeobject..PyType$GT$$C$pyo3..err..cast_error..CastError$GT$$GT$17h58c7cc01717223ccE', symObjAddr: 0x3EF8, symBinAddr: 0xEE9C, symSize: 0x44 }
  - { offset: 0x519B5, size: 0x8, addend: 0x0, symName: '__ZN4core3ptr150drop_in_place$LT$std..sync..poison..mutex..MutexGuard$LT$alloc..vec..Vec$LT$core..ptr..non_null..NonNull$LT$pyo3_ffi..object..PyObject$GT$$GT$$GT$$GT$17h4b15a840110f2104E', symObjAddr: 0x3F60, symBinAddr: 0xEEE0, symSize: 0x24 }
  - { offset: 0x519E4, size: 0x8, addend: 0x0, symName: '__ZN4core3ptr152drop_in_place$LT$pyo3..err..PyErr..new$LT$pyo3..exceptions..PyTypeError$C$pyo3..err..cast_error..CastErrorArguments$GT$..$u7b$$u7b$closure$u7d$$u7d$$GT$17h83b7b32c4402d444E', symObjAddr: 0x3FEC, symBinAddr: 0xEF04, symSize: 0x24 }
  - { offset: 0x51A13, size: 0x8, addend: 0x0, symName: '__ZN4core3ptr156drop_in_place$LT$std..sync..poison..PoisonError$LT$std..sync..poison..mutex..MutexGuard$LT$core..option..Option$LT$std..thread..id..ThreadId$GT$$GT$$GT$$GT$17hb2729b991aef683aE', symObjAddr: 0x4094, symBinAddr: 0xEF28, symSize: 0x24 }
  - { offset: 0x51A42, size: 0x8, addend: 0x0, symName: '__ZN4core3ptr157drop_in_place$LT$pyo3..err..err_state..PyErrState..make_normalized..$u7b$$u7b$closure$u7d$$u7d$..$u7b$$u7b$closure$u7d$$u7d$..$u7b$$u7b$closure$u7d$$u7d$$GT$17h595ba7f9c4ee1223E', symObjAddr: 0x40B8, symBinAddr: 0xEF4C, symSize: 0x24 }
  - { offset: 0x51A71, size: 0x8, addend: 0x0, symName: '__ZN4core3ptr168drop_in_place$LT$core..iter..adapters..enumerate..Enumerate$LT$core..array..iter..IntoIter$LT$pyo3..instance..Bound$LT$pyo3..types..any..PyAny$GT$$C$1_usize$GT$$GT$$GT$17hced294da419da9c0E', symObjAddr: 0x4124, symBinAddr: 0xEF70, symSize: 0x24 }
  - { offset: 0x51AA0, size: 0x8, addend: 0x0, symName: '__ZN4core3ptr188drop_in_place$LT$std..sync..poison..PoisonError$LT$std..sync..poison..mutex..MutexGuard$LT$alloc..vec..Vec$LT$core..ptr..non_null..NonNull$LT$pyo3_ffi..object..PyObject$GT$$GT$$GT$$GT$$GT$17hd790c8df5f3c66c0E', symObjAddr: 0x4190, symBinAddr: 0xEF94, symSize: 0x24 }
  - { offset: 0x51ACF, size: 0x8, addend: 0x0, symName: '__ZN4core3ptr192drop_in_place$LT$core..array..iter..iter_inner..PolymorphicIter$LT$$u5b$core..mem..maybe_uninit..MaybeUninit$LT$pyo3..instance..Bound$LT$pyo3..types..any..PyAny$GT$$GT$$u3b$$u20$1$u5d$$GT$$GT$17h25c2992df42b81aeE', symObjAddr: 0x41B4, symBinAddr: 0xEFB8, symSize: 0x24 }
  - { offset: 0x51AFE, size: 0x8, addend: 0x0, symName: '__ZN4core3ptr216drop_in_place$LT$$LT$alloc..vec..into_iter..IntoIter$LT$T$C$A$GT$$u20$as$u20$core..ops..drop..Drop$GT$..drop..DropGuard$LT$core..ptr..non_null..NonNull$LT$pyo3_ffi..object..PyObject$GT$$C$alloc..alloc..Global$GT$$GT$17hc1b43d377afc8c8aE', symObjAddr: 0x428C, symBinAddr: 0xEFDC, symSize: 0x24 }
  - { offset: 0x51B2D, size: 0x8, addend: 0x0, symName: '__ZN4core3ptr219drop_in_place$LT$pyo3..sync..once_lock..init_once_cell_py_attached$LT$pyo3..sync..Interned..get..$u7b$$u7b$closure$u7d$$u7d$$C$pyo3..instance..Py$LT$pyo3..types..string..PyString$GT$$GT$..$u7b$$u7b$closure$u7d$$u7d$$GT$17h25f2ca6388cb5ad1E', symObjAddr: 0x42B0, symBinAddr: 0xF000, symSize: 0x24 }
  - { offset: 0x51B5C, size: 0x8, addend: 0x0, symName: '__ZN4core3ptr236drop_in_place$LT$alloc..boxed..Box$LT$dyn$u20$core..ops..function..FnOnce$LT$$LP$pyo3..marker..Python$C$$RP$$GT$$u2b$Output$u20$$u3d$$u20$pyo3..err..err_state..PyErrStateLazyFnOutput$u2b$core..marker..Send$u2b$core..marker..Sync$GT$$GT$17hd1753639b9fed37eE', symObjAddr: 0x42D4, symBinAddr: 0xF024, symSize: 0x80 }
  - { offset: 0x51B8B, size: 0x8, addend: 0x0, symName: '__ZN4core3ptr289drop_in_place$LT$pyo3..sync..once_lock..init_once_cell_py_attached$LT$$LT$pyo3..panic..PanicException$u20$as$u20$pyo3..type_object..PyTypeInfo$GT$..type_object_raw..$u7b$$u7b$closure$u7d$$u7d$$C$pyo3..instance..Py$LT$pyo3..types..typeobject..PyType$GT$$GT$..$u7b$$u7b$closure$u7d$$u7d$$GT$17h664799383abfbaf9E', symObjAddr: 0x43E4, symBinAddr: 0xF0A4, symSize: 0x24 }
  - { offset: 0x51BBA, size: 0x8, addend: 0x0, symName: '__ZN4core3ptr357drop_in_place$LT$once_cell..sync..OnceCell$LT$pyo3..instance..Py$LT$pyo3..types..string..PyString$GT$$GT$..get_or_init$LT$pyo3..sync..once_lock..init_once_cell_py_attached$LT$pyo3..sync..Interned..get..$u7b$$u7b$closure$u7d$$u7d$$C$pyo3..instance..Py$LT$pyo3..types..string..PyString$GT$$GT$..$u7b$$u7b$closure$u7d$$u7d$$GT$..$u7b$$u7b$closure$u7d$$u7d$$GT$17hd57e5a097fee3056E', symObjAddr: 0x45EC, symBinAddr: 0xF0C8, symSize: 0x24 }
  - { offset: 0x51BE9, size: 0x8, addend: 0x0, symName: '__ZN4core3ptr37drop_in_place$LT$pyo3..err..PyErr$GT$17h962c3a21b48adb74E', symObjAddr: 0x4610, symBinAddr: 0xF0EC, symSize: 0x24 }
  - { offset: 0x51C18, size: 0x8, addend: 0x0, symName: '__ZN4core3ptr385drop_in_place$LT$core..option..Option$LT$once_cell..sync..OnceCell$LT$pyo3..instance..Py$LT$pyo3..types..string..PyString$GT$$GT$..get_or_init$LT$pyo3..sync..once_lock..init_once_cell_py_attached$LT$pyo3..sync..Interned..get..$u7b$$u7b$closure$u7d$$u7d$$C$pyo3..instance..Py$LT$pyo3..types..string..PyString$GT$$GT$..$u7b$$u7b$closure$u7d$$u7d$$GT$..$u7b$$u7b$closure$u7d$$u7d$$GT$$GT$17hbcde1d8a46b29a77E', symObjAddr: 0x4634, symBinAddr: 0xF110, symSize: 0x44 }
  - { offset: 0x51C47, size: 0x8, addend: 0x0, symName: '__ZN4core3ptr429drop_in_place$LT$once_cell..sync..OnceCell$LT$pyo3..instance..Py$LT$pyo3..types..typeobject..PyType$GT$$GT$..get_or_init$LT$pyo3..sync..once_lock..init_once_cell_py_attached$LT$$LT$pyo3..panic..PanicException$u20$as$u20$pyo3..type_object..PyTypeInfo$GT$..type_object_raw..$u7b$$u7b$closure$u7d$$u7d$$C$pyo3..instance..Py$LT$pyo3..types..typeobject..PyType$GT$$GT$..$u7b$$u7b$closure$u7d$$u7d$$GT$..$u7b$$u7b$closure$u7d$$u7d$$GT$17h7644ddb558e1460eE', symObjAddr: 0x46C0, symBinAddr: 0xF154, symSize: 0x24 }
  - { offset: 0x51C76, size: 0x8, addend: 0x0, symName: '__ZN4core3ptr42drop_in_place$LT$alloc..string..String$GT$17hf9298bfef3c4b162E', symObjAddr: 0x46E4, symBinAddr: 0xF178, symSize: 0x24 }
  - { offset: 0x51CA5, size: 0x8, addend: 0x0, symName: '__ZN4core3ptr457drop_in_place$LT$core..option..Option$LT$once_cell..sync..OnceCell$LT$pyo3..instance..Py$LT$pyo3..types..typeobject..PyType$GT$$GT$..get_or_init$LT$pyo3..sync..once_lock..init_once_cell_py_attached$LT$$LT$pyo3..panic..PanicException$u20$as$u20$pyo3..type_object..PyTypeInfo$GT$..type_object_raw..$u7b$$u7b$closure$u7d$$u7d$$C$pyo3..instance..Py$LT$pyo3..types..typeobject..PyType$GT$$GT$..$u7b$$u7b$closure$u7d$$u7d$$GT$..$u7b$$u7b$closure$u7d$$u7d$$GT$$GT$17h01ff48c6a5a7242eE', symObjAddr: 0x4774, symBinAddr: 0xF19C, symSize: 0x44 }
  - { offset: 0x51CD4, size: 0x8, addend: 0x0, symName: '__ZN4core3ptr46drop_in_place$LT$alloc..vec..Vec$LT$u8$GT$$GT$17h9210eb659a9c0097E', symObjAddr: 0x47B8, symBinAddr: 0xF1E0, symSize: 0x5C }
  - { offset: 0x51D03, size: 0x8, addend: 0x0, symName: '__ZN4core3ptr50drop_in_place$LT$alloc..borrow..Cow$LT$str$GT$$GT$17h080537c6e76a6127E', symObjAddr: 0x4948, symBinAddr: 0xF23C, symSize: 0x48 }
  - { offset: 0x51D32, size: 0x8, addend: 0x0, symName: '__ZN4core3ptr50drop_in_place$LT$pyo3..impl_..panic..PanicTrap$GT$17hd5e3c17cf4d0ea76E', symObjAddr: 0x49EC, symBinAddr: 0xF284, symSize: 0x24 }
  - { offset: 0x51D61, size: 0x8, addend: 0x0, symName: '__ZN4core3ptr53drop_in_place$LT$$LP$alloc..string..String$C$$RP$$GT$17hb809e2449efcd0ceE', symObjAddr: 0x4A6C, symBinAddr: 0xF2A8, symSize: 0x24 }
  - { offset: 0x51D90, size: 0x8, addend: 0x0, symName: '__ZN4core3ptr53drop_in_place$LT$alloc..raw_vec..RawVec$LT$u8$GT$$GT$17h5224b3774f4e5b72E', symObjAddr: 0x4A90, symBinAddr: 0xF2CC, symSize: 0x24 }
  - { offset: 0x51DBF, size: 0x8, addend: 0x0, symName: '__ZN4core3ptr53drop_in_place$LT$pyo3..err..cast_error..CastError$GT$17h8daf62725a0dadd1E', symObjAddr: 0x4AB4, symBinAddr: 0xF2F0, symSize: 0x24 }
  - { offset: 0x51DEE, size: 0x8, addend: 0x0, symName: '__ZN4core3ptr53drop_in_place$LT$pyo3..err..err_state..PyErrState$GT$17h0eaa225cf45a1742E', symObjAddr: 0x4AD8, symBinAddr: 0xF314, symSize: 0x64 }
  - { offset: 0x51E1D, size: 0x8, addend: 0x0, symName: '__ZN4core3ptr55drop_in_place$LT$pyo3..internal..state..AttachGuard$GT$17h206d67bfad3534cbE', symObjAddr: 0x4B60, symBinAddr: 0xF378, symSize: 0x60 }
  - { offset: 0x51E4C, size: 0x8, addend: 0x0, symName: '__ZN4core3ptr57drop_in_place$LT$pyo3..internal..state..SuspendAttach$GT$17hb910c7a3db742612E', symObjAddr: 0x4C08, symBinAddr: 0xF3D8, symSize: 0x24 }
  - { offset: 0x51E7B, size: 0x8, addend: 0x0, symName: '__ZN4core3ptr58drop_in_place$LT$pyo3..err..err_state..PyErrStateInner$GT$17hc005ac99ce1028ddE', symObjAddr: 0x4CA0, symBinAddr: 0xF3FC, symSize: 0x58 }
  - { offset: 0x51EAA, size: 0x8, addend: 0x0, symName: '__ZN4core3ptr58drop_in_place$LT$std..sys..sync..mutex..pthread..Mutex$GT$17hd223f5b5681658b2E', symObjAddr: 0x4CF8, symBinAddr: 0xF454, symSize: 0x5C }
  - { offset: 0x51ED9, size: 0x8, addend: 0x0, symName: '__ZN4core3ptr59drop_in_place$LT$pyo3..types..tuple..BoundTupleIterator$GT$17h61d383cc058770e0E', symObjAddr: 0x4D54, symBinAddr: 0xF4B0, symSize: 0x24 }
  - { offset: 0x51F08, size: 0x8, addend: 0x0, symName: '__ZN4core3ptr60drop_in_place$LT$std..sys..pal..unix..sync..mutex..Mutex$GT$17hadb83bf5d78305e0E', symObjAddr: 0x4D78, symBinAddr: 0xF4D4, symSize: 0x24 }
  - { offset: 0x51F37, size: 0x8, addend: 0x0, symName: '__ZN4core3ptr62drop_in_place$LT$pyo3..err..cast_error..CastErrorArguments$GT$17hc8b149c975cec013E', symObjAddr: 0x4DC0, symBinAddr: 0xF4F8, symSize: 0x60 }
  - { offset: 0x51F66, size: 0x8, addend: 0x0, symName: '__ZN4core3ptr63drop_in_place$LT$pyo3..err..err_state..PyErrStateNormalized$GT$17h963060af8f629805E', symObjAddr: 0x4E44, symBinAddr: 0xF558, symSize: 0x24 }
  - { offset: 0x51F95, size: 0x8, addend: 0x0, symName: '__ZN4core3ptr70drop_in_place$LT$core..option..Option$LT$alloc..string..String$GT$$GT$17hdc9fa9127917673eE', symObjAddr: 0x50EC, symBinAddr: 0xF57C, symSize: 0x48 }
  - { offset: 0x51FC4, size: 0x8, addend: 0x0, symName: '__ZN4core3ptr70drop_in_place$LT$pyo3..instance..Py$LT$pyo3..types..any..PyAny$GT$$GT$17h5a33c5329337b184E', symObjAddr: 0x5190, symBinAddr: 0xF5C4, symSize: 0x24 }
  - { offset: 0x51FF3, size: 0x8, addend: 0x0, symName: '__ZN4core3ptr73drop_in_place$LT$pyo3..instance..Bound$LT$pyo3..types..any..PyAny$GT$$GT$17h12a4844b060cd547E', symObjAddr: 0x5350, symBinAddr: 0xF5E8, symSize: 0x24 }
  - { offset: 0x52022, size: 0x8, addend: 0x0, symName: '__ZN4core3ptr75drop_in_place$LT$core..result..Result$LT$$RF$str$C$pyo3..err..PyErr$GT$$GT$17hd8777bb9770bb02bE', symObjAddr: 0x5418, symBinAddr: 0xF60C, symSize: 0x40 }
  - { offset: 0x52051, size: 0x8, addend: 0x0, symName: '__ZN4core3ptr75drop_in_place$LT$pyo3..instance..Bound$LT$pyo3..types..list..PyList$GT$$GT$17h195ad242a25381ceE', symObjAddr: 0x54A0, symBinAddr: 0xF64C, symSize: 0x24 }
  - { offset: 0x52080, size: 0x8, addend: 0x0, symName: '__ZN4core3ptr76drop_in_place$LT$pyo3..instance..Py$LT$pyo3..types..string..PyString$GT$$GT$17he577a16bf5bf005eE', symObjAddr: 0x5528, symBinAddr: 0xF670, symSize: 0x24 }
  - { offset: 0x520AF, size: 0x8, addend: 0x0, symName: '__ZN4core3ptr77drop_in_place$LT$pyo3..instance..Bound$LT$pyo3..types..bytes..PyBytes$GT$$GT$17h3dc7d319b25307faE', symObjAddr: 0x554C, symBinAddr: 0xF694, symSize: 0x24 }
  - { offset: 0x520DE, size: 0x8, addend: 0x0, symName: '__ZN4core3ptr77drop_in_place$LT$pyo3..instance..Bound$LT$pyo3..types..tuple..PyTuple$GT$$GT$17hb8ac5d2703316bcaE', symObjAddr: 0x5594, symBinAddr: 0xF6B8, symSize: 0x24 }
  - { offset: 0x5210D, size: 0x8, addend: 0x0, symName: '__ZN4core3ptr78drop_in_place$LT$pyo3..instance..Py$LT$pyo3..types..typeobject..PyType$GT$$GT$17h2696f0e1201a9a3dE', symObjAddr: 0x5670, symBinAddr: 0xF6DC, symSize: 0x24 }
  - { offset: 0x5213C, size: 0x8, addend: 0x0, symName: '__ZN4core3ptr79drop_in_place$LT$pyo3..instance..Bound$LT$pyo3..types..module..PyModule$GT$$GT$17h7d91cb001e119fcbE', symObjAddr: 0x5800, symBinAddr: 0xF700, symSize: 0x24 }
  - { offset: 0x5216B, size: 0x8, addend: 0x0, symName: '__ZN4core3ptr79drop_in_place$LT$pyo3..instance..Bound$LT$pyo3..types..string..PyString$GT$$GT$17h3dc96ece7636ccb2E', symObjAddr: 0x5824, symBinAddr: 0xF724, symSize: 0x24 }
  - { offset: 0x5219A, size: 0x8, addend: 0x0, symName: '__ZN4core3ptr80drop_in_place$LT$pyo3..instance..Py$LT$pyo3..exceptions..PyBaseException$GT$$GT$17h90470b59b78f0699E', symObjAddr: 0x58B4, symBinAddr: 0xF748, symSize: 0x24 }
  - { offset: 0x521C9, size: 0x8, addend: 0x0, symName: '__ZN4core3ptr81drop_in_place$LT$pyo3..instance..Bound$LT$pyo3..types..typeobject..PyType$GT$$GT$17h207c0320b0973dc3E', symObjAddr: 0x5920, symBinAddr: 0xF76C, symSize: 0x24 }
  - { offset: 0x521F8, size: 0x8, addend: 0x0, symName: '__ZN4core3ptr83drop_in_place$LT$$u5b$pyo3..instance..Bound$LT$pyo3..types..any..PyAny$GT$$u5d$$GT$17hccd8303f5044a203E', symObjAddr: 0x5944, symBinAddr: 0xF790, symSize: 0xB4 }
  - { offset: 0x52227, size: 0x8, addend: 0x0, symName: '__ZN4core3ptr83drop_in_place$LT$pyo3..instance..Bound$LT$pyo3..exceptions..PyBaseException$GT$$GT$17h2a644e9099872082E', symObjAddr: 0x59F8, symBinAddr: 0xF844, symSize: 0x24 }
  - { offset: 0x52256, size: 0x8, addend: 0x0, symName: '__ZN4core3ptr85drop_in_place$LT$alloc..boxed..Box$LT$std..sys..pal..unix..sync..mutex..Mutex$GT$$GT$17ha34739e4a0f40f32E', symObjAddr: 0x5A64, symBinAddr: 0xF868, symSize: 0x60 }
  - { offset: 0x52285, size: 0x8, addend: 0x0, symName: '__ZN4core3ptr85drop_in_place$LT$pyo3..instance..Bound$LT$pyo3..types..traceback..PyTraceback$GT$$GT$17he7abefb8becea24cE', symObjAddr: 0x5B78, symBinAddr: 0xF8C8, symSize: 0x24 }
  - { offset: 0x522B4, size: 0x8, addend: 0x0, symName: '__ZN4core3ptr86drop_in_place$LT$core..option..Option$LT$pyo3..err..err_state..PyErrStateInner$GT$$GT$17h1b37e5009eb07df2E', symObjAddr: 0x5BE4, symBinAddr: 0xF8EC, symSize: 0x40 }
  - { offset: 0x522E3, size: 0x8, addend: 0x0, symName: '__ZN4core3ptr91drop_in_place$LT$alloc..boxed..Box$LT$dyn$u20$core..any..Any$u2b$core..marker..Send$GT$$GT$17hdef51aad1d03b08aE', symObjAddr: 0x5CD8, symBinAddr: 0xF92C, symSize: 0x80 }
  - { offset: 0x52312, size: 0x8, addend: 0x0, symName: '__ZN4core3ptr94drop_in_place$LT$$u5b$pyo3..instance..Bound$LT$pyo3..types..any..PyAny$GT$$u3b$$u20$1$u5d$$GT$17he96ce6c64908ccb4E', symObjAddr: 0x5EA0, symBinAddr: 0xF9AC, symSize: 0xA4 }
  - { offset: 0x52684, size: 0x8, addend: 0x0, symName: '__ZN4core3ops8function6FnOnce40call_once$u7b$$u7b$vtable.shim$u7d$$u7d$17h1d2b72697c432954E', symObjAddr: 0x1BE8, symBinAddr: 0xE61C, symSize: 0x30 }
  - { offset: 0x526C8, size: 0x8, addend: 0x0, symName: '__ZN4core3ops8function6FnOnce40call_once$u7b$$u7b$vtable.shim$u7d$$u7d$17h3d3af7139d6b8807E', symObjAddr: 0x1CC8, symBinAddr: 0xE64C, symSize: 0x30 }
  - { offset: 0x52708, size: 0x8, addend: 0x0, symName: '__ZN4core3ops8function6FnOnce40call_once$u7b$$u7b$vtable.shim$u7d$$u7d$17h3dd413dc0f04e039E', symObjAddr: 0x1CF8, symBinAddr: 0xE67C, symSize: 0x24 }
  - { offset: 0x5274C, size: 0x8, addend: 0x0, symName: '__ZN4core3ops8function6FnOnce40call_once$u7b$$u7b$vtable.shim$u7d$$u7d$17h451b56e7fa74fce2E', symObjAddr: 0x1D1C, symBinAddr: 0xE6A0, symSize: 0x30 }
  - { offset: 0x5278C, size: 0x8, addend: 0x0, symName: '__ZN4core3ops8function6FnOnce40call_once$u7b$$u7b$vtable.shim$u7d$$u7d$17h5db8fc716f251300E', symObjAddr: 0x1E58, symBinAddr: 0xE6D0, symSize: 0x30 }
  - { offset: 0x527CC, size: 0x8, addend: 0x0, symName: '__ZN4core3ops8function6FnOnce40call_once$u7b$$u7b$vtable.shim$u7d$$u7d$17h85e2db357b77401bE', symObjAddr: 0x1FC4, symBinAddr: 0xE700, symSize: 0x30 }
  - { offset: 0x52810, size: 0x8, addend: 0x0, symName: '__ZN4core3ops8function6FnOnce40call_once$u7b$$u7b$vtable.shim$u7d$$u7d$17h9c762c6ee1ad39cbE', symObjAddr: 0x20A8, symBinAddr: 0xE730, symSize: 0x24 }
  - { offset: 0x52854, size: 0x8, addend: 0x0, symName: '__ZN4core3ops8function6FnOnce40call_once$u7b$$u7b$vtable.shim$u7d$$u7d$17ha0271170fbeffdbdE', symObjAddr: 0x20CC, symBinAddr: 0xE754, symSize: 0x30 }
  - { offset: 0x52894, size: 0x8, addend: 0x0, symName: '__ZN4core3ops8function6FnOnce40call_once$u7b$$u7b$vtable.shim$u7d$$u7d$17hb9783d0682d853c9E', symObjAddr: 0x2170, symBinAddr: 0xE784, symSize: 0x24 }
  - { offset: 0x528D8, size: 0x8, addend: 0x0, symName: '__ZN4core3ops8function6FnOnce40call_once$u7b$$u7b$vtable.shim$u7d$$u7d$17he13f0da80846982cE', symObjAddr: 0x2288, symBinAddr: 0xE7A8, symSize: 0x30 }
  - { offset: 0x52918, size: 0x8, addend: 0x0, symName: __ZN4core3ops8function6FnOnce9call_once17h0df91b9fc9b95d62E, symObjAddr: 0x247C, symBinAddr: 0xE7D8, symSize: 0x4C }
  - { offset: 0x52958, size: 0x8, addend: 0x0, symName: __ZN4core3ops8function6FnOnce9call_once17h1989237f2ab67862E, symObjAddr: 0x24C8, symBinAddr: 0xE824, symSize: 0x40 }
  - { offset: 0x5299D, size: 0x8, addend: 0x0, symName: __ZN4core3ops8function6FnOnce9call_once17h2bfe723a73317ab5E, symObjAddr: 0x2578, symBinAddr: 0xE864, symSize: 0x24 }
  - { offset: 0x529E1, size: 0x8, addend: 0x0, symName: __ZN4core3ops8function6FnOnce9call_once17h51fc8276f3b82977E, symObjAddr: 0x2718, symBinAddr: 0xE888, symSize: 0x24 }
  - { offset: 0x52A25, size: 0x8, addend: 0x0, symName: __ZN4core3ops8function6FnOnce9call_once17h5b3bf9883e0e1d58E, symObjAddr: 0x2760, symBinAddr: 0xE8AC, symSize: 0x24 }
  - { offset: 0x52A69, size: 0x8, addend: 0x0, symName: __ZN4core3ops8function6FnOnce9call_once17h647ea542d76762fbE, symObjAddr: 0x27A8, symBinAddr: 0xE8D0, symSize: 0x4C }
  - { offset: 0x52AA9, size: 0x8, addend: 0x0, symName: __ZN4core3ops8function6FnOnce9call_once17h7d6596b6a59aca10E, symObjAddr: 0x2834, symBinAddr: 0xE91C, symSize: 0x1C }
  - { offset: 0x52AED, size: 0x8, addend: 0x0, symName: __ZN4core3ops8function6FnOnce9call_once17h8516b626f2a06acfE, symObjAddr: 0x289C, symBinAddr: 0xE938, symSize: 0x2C }
  - { offset: 0x52B31, size: 0x8, addend: 0x0, symName: __ZN4core3ops8function6FnOnce9call_once17h8a1ea58a696c2a21E, symObjAddr: 0x2910, symBinAddr: 0xE964, symSize: 0x4C }
  - { offset: 0x52B71, size: 0x8, addend: 0x0, symName: __ZN4core3ops8function6FnOnce9call_once17h8ea89ec2f9957022E, symObjAddr: 0x295C, symBinAddr: 0xE9B0, symSize: 0x4C }
  - { offset: 0x52BB1, size: 0x8, addend: 0x0, symName: __ZN4core3ops8function6FnOnce9call_once17h95d4dbe2a94fc249E, symObjAddr: 0x2A30, symBinAddr: 0xE9FC, symSize: 0x4C }
  - { offset: 0x52BF1, size: 0x8, addend: 0x0, symName: __ZN4core3ops8function6FnOnce9call_once17ha6bda14e06095c7fE, symObjAddr: 0x2B44, symBinAddr: 0xEA48, symSize: 0x4C }
  - { offset: 0x52C35, size: 0x8, addend: 0x0, symName: __ZN4core3ops8function6FnOnce9call_once17hbe792f03208e1641E, symObjAddr: 0x2C38, symBinAddr: 0xEA94, symSize: 0x2C }
  - { offset: 0x52C79, size: 0x8, addend: 0x0, symName: __ZN4core3ops8function6FnOnce9call_once17hdf983926432532b9E, symObjAddr: 0x2D58, symBinAddr: 0xEAC0, symSize: 0x40 }
  - { offset: 0x52CBE, size: 0x8, addend: 0x0, symName: __ZN4core3ops8function6FnOnce9call_once17he26d4021bac77537E, symObjAddr: 0x2D98, symBinAddr: 0xEB00, symSize: 0x2C }
  - { offset: 0x52F21, size: 0x8, addend: 0x0, symName: __ZN4core3mem4drop17hbafbc17c7f3f2043E, symObjAddr: 0x1904, symBinAddr: 0xE55C, symSize: 0x2C }
  - { offset: 0x52F54, size: 0x8, addend: 0x0, symName: __ZN4core3mem4drop17hc57d654ef0f3e667E, symObjAddr: 0x1930, symBinAddr: 0xE588, symSize: 0x2C }
  - { offset: 0x52FBA, size: 0x8, addend: 0x0, symName: __ZN4core3mem4take17ha4bb26e476d8f285E, symObjAddr: 0x19B0, symBinAddr: 0xE5B4, symSize: 0x54 }
  - { offset: 0x53017, size: 0x8, addend: 0x0, symName: __ZN4core3mem6forget17ha1e298c8783e9912E, symObjAddr: 0x1A6C, symBinAddr: 0xE608, symSize: 0x14 }
  - { offset: 0x55154, size: 0x8, addend: 0x0, symName: '__ZN3std6thread5local17LocalKey$LT$T$GT$4with17h0621ff19bd2947c2E', symObjAddr: 0xEA8, symBinAddr: 0xDFD8, symSize: 0x4C }
  - { offset: 0x551CC, size: 0x8, addend: 0x0, symName: '__ZN3std6thread5local17LocalKey$LT$T$GT$4with17h4a1edb6e116f33f2E', symObjAddr: 0xEF4, symBinAddr: 0xE024, symSize: 0x48 }
  - { offset: 0x55285, size: 0x8, addend: 0x0, symName: '__ZN3std6thread5local17LocalKey$LT$T$GT$8try_with17h13a3dc36de6d49e1E', symObjAddr: 0x1028, symBinAddr: 0xE06C, symSize: 0xD8 }
  - { offset: 0x55407, size: 0x8, addend: 0x0, symName: '__ZN3std6thread5local17LocalKey$LT$T$GT$8try_with17h3490c51f5c423657E', symObjAddr: 0x11D8, symBinAddr: 0xE144, symSize: 0xCC }
  - { offset: 0x55588, size: 0x8, addend: 0x0, symName: '__ZN3std6thread5local17LocalKey$LT$T$GT$8try_with17h59e06b4b2f945979E', symObjAddr: 0x12A4, symBinAddr: 0xE210, symSize: 0xCC }
  - { offset: 0x55709, size: 0x8, addend: 0x0, symName: '__ZN3std6thread5local17LocalKey$LT$T$GT$8try_with17h91437ae93cc5f37dE', symObjAddr: 0x1370, symBinAddr: 0xE2DC, symSize: 0xD8 }
  - { offset: 0x5588B, size: 0x8, addend: 0x0, symName: '__ZN3std6thread5local17LocalKey$LT$T$GT$8try_with17hae395037c2305cf9E', symObjAddr: 0x1448, symBinAddr: 0xE3B4, symSize: 0xD8 }
  - { offset: 0x55A14, size: 0x8, addend: 0x0, symName: '__ZN3std6thread5local17LocalKey$LT$T$GT$8try_with17hc6ee55ff8e8f683aE', symObjAddr: 0x16D8, symBinAddr: 0xE48C, symSize: 0xD0 }
  - { offset: 0x5645E, size: 0x8, addend: 0x0, symName: '__ZN3std4sync9once_lock17OnceLock$LT$T$GT$11get_or_init28_$u7b$$u7b$closure$u7d$$u7d$17h457b777ff2cd99baE', symObjAddr: 0x824, symBinAddr: 0xFB40, symSize: 0x3C }
  - { offset: 0x564A5, size: 0x8, addend: 0x0, symName: '__ZN3std4sync9once_lock17OnceLock$LT$T$GT$10initialize28_$u7b$$u7b$closure$u7d$$u7d$17h3669896ea84ddd96E', symObjAddr: 0x754, symBinAddr: 0xFA70, symSize: 0xA4 }
  - { offset: 0x56764, size: 0x8, addend: 0x0, symName: __ZN4core4sync6atomic11atomic_load17hbadf5dd0dc025614E, symObjAddr: 0x1DE8, symBinAddr: 0xFCD4, symSize: 0xF8 }
  - { offset: 0x567AA, size: 0x8, addend: 0x0, symName: __ZN4core4sync6atomic11atomic_load17hed38c8b6ccceb792E, symObjAddr: 0x1EE0, symBinAddr: 0xFDCC, symSize: 0xF8 }
  - { offset: 0x567F0, size: 0x8, addend: 0x0, symName: __ZN4core4sync6atomic23atomic_compare_exchange17hc8131d38c7a5d297E, symObjAddr: 0x25A4, symBinAddr: 0xFEC4, symSize: 0x4B4 }
  - { offset: 0x576A4, size: 0x8, addend: 0x0, symName: '__ZN4core3str21_$LT$impl$u20$str$GT$3len17hcd85ff449ec0eab7E', symObjAddr: 0xD38, symBinAddr: 0xFCB8, symSize: 0x1C }
  - { offset: 0x57F15, size: 0x8, addend: 0x0, symName: __ZN8pyo3_ffi12moduleobject14PyModule_Check17hd10a39fe950a608eE, symObjAddr: 0x3A84, symBinAddr: 0x10378, symSize: 0x2C }
  - { offset: 0x58499, size: 0x8, addend: 0x0, symName: '__ZN3std4sync9once_lock17OnceLock$LT$T$GT$10initialize17ha56e2735c90ea54fE', symObjAddr: 0x704, symBinAddr: 0x4AC38, symSize: 0x50 }
  - { offset: 0x585D3, size: 0x8, addend: 0x0, symName: '__ZN3std4sync9once_lock17OnceLock$LT$T$GT$11get_or_init17hbe39bee379aa68f7E', symObjAddr: 0x7F8, symBinAddr: 0xFB14, symSize: 0x2C }
  - { offset: 0x586FB, size: 0x8, addend: 0x0, symName: '__ZN3std4sync9once_lock17OnceLock$LT$T$GT$15get_or_try_init17hb838631e78eb3db0E', symObjAddr: 0x860, symBinAddr: 0xFB7C, symSize: 0xD8 }
  - { offset: 0x58A2E, size: 0x8, addend: 0x0, symName: '__ZN3std4sync9once_lock17OnceLock$LT$T$GT$3get17hb54ad6db9d57ada5E', symObjAddr: 0x938, symBinAddr: 0xFC54, symSize: 0x64 }
  - { offset: 0x58C45, size: 0x8, addend: 0x0, symName: '__ZN63_$LT$alloc..alloc..Global$u20$as$u20$core..alloc..Allocator$GT$10deallocate17hfe37434df2773508E', symObjAddr: 0x1CC8, symBinAddr: 0x106EC, symSize: 0x58 }
  - { offset: 0x58CD2, size: 0x8, addend: 0x0, symName: __ZN5alloc5alloc15exchange_malloc17hb2c8907850967230E, symObjAddr: 0x1A84, symBinAddr: 0x104A8, symSize: 0xAC }
  - { offset: 0x5AC4B, size: 0x8, addend: 0x0, symName: '__ZN118_$LT$$u5b$core..mem..maybe_uninit..MaybeUninit$LT$T$GT$$u5d$$u20$as$u20$core..array..iter..iter_inner..PartialDrop$GT$12partial_drop17h4757ad96ca733db0E', symObjAddr: 0x154, symBinAddr: 0x103A4, symSize: 0xA0 }
  - { offset: 0x5AD53, size: 0x8, addend: 0x0, symName: '__ZN129_$LT$$u5b$core..mem..maybe_uninit..MaybeUninit$LT$T$GT$$u3b$$u20$N$u5d$$u20$as$u20$core..array..iter..iter_inner..PartialDrop$GT$12partial_drop17h5972070c5c95e3b5E', symObjAddr: 0x1F4, symBinAddr: 0x10444, symSize: 0x4C }
  - { offset: 0x5ADFE, size: 0x8, addend: 0x0, symName: '__ZN82_$LT$core..array..iter..IntoIter$LT$T$C$_$GT$$u20$as$u20$core..ops..drop..Drop$GT$4drop17hae434457faa55529E', symObjAddr: 0x2BAC, symBinAddr: 0x10744, symSize: 0x30 }
  - { offset: 0x5AE55, size: 0x8, addend: 0x0, symName: '__ZN99_$LT$core..array..iter..IntoIter$LT$T$C$_$GT$$u20$as$u20$core..iter..traits..iterator..Iterator$GT$4next17hf04e308f48deaec4E', symObjAddr: 0x3724, symBinAddr: 0x10774, symSize: 0x2C }
  - { offset: 0x5B07A, size: 0x8, addend: 0x0, symName: __ZN4core4iter6traits8iterator8Iterator9enumerate17h3d2a1a1e97ca8542E, symObjAddr: 0x1318, symBinAddr: 0x10490, symSize: 0x18 }
  - { offset: 0x5B0AB, size: 0x8, addend: 0x0, symName: __ZN4core4iter6traits8iterator8Iterator9enumerate17h3d2a1a1e97ca8542E, symObjAddr: 0x1318, symBinAddr: 0x10490, symSize: 0x18 }
  - { offset: 0x5C332, size: 0x8, addend: 0x0, symName: '__ZN9once_cell3imp17OnceCell$LT$T$GT$10initialize28_$u7b$$u7b$closure$u7d$$u7d$17h6ea5f6b25f5bfc2cE', symObjAddr: 0x4364, symBinAddr: 0x107A0, symSize: 0x1A8 }
  - { offset: 0x5C3D0, size: 0x8, addend: 0x0, symName: '__ZN9once_cell3imp17OnceCell$LT$T$GT$10initialize28_$u7b$$u7b$closure$u7d$$u7d$17hc0723c3e186584fdE', symObjAddr: 0x49A4, symBinAddr: 0x10948, symSize: 0x180 }
  - { offset: 0x5CA4C, size: 0x8, addend: 0x0, symName: __ZN5alloc5alloc6Global10alloc_impl17h96077f2ab77f2c25E, symObjAddr: 0x1B30, symBinAddr: 0x10554, symSize: 0x198 }
  - { offset: 0x5CEF4, size: 0x8, addend: 0x0, symName: '__ZN9once_cell3imp17OnceCell$LT$T$GT$10initialize17h1a894f2c4a315481E', symObjAddr: 0x395C, symBinAddr: 0x4AC88, symSize: 0xA8 }
  - { offset: 0x5CFDA, size: 0x8, addend: 0x0, symName: '__ZN9once_cell3imp17OnceCell$LT$T$GT$10initialize17hb7fd14b398d4aac0E', symObjAddr: 0x3AD8, symBinAddr: 0x4AD30, symSize: 0xAC }
  - { offset: 0x5D098, size: 0x8, addend: 0x0, symName: '__ZN9once_cell3imp17OnceCell$LT$T$GT$13get_unchecked17h74e9f40f6a6d6ee5E', symObjAddr: 0x4D74, symBinAddr: 0x10AC8, symSize: 0xC0 }
  - { offset: 0x5D0ED, size: 0x8, addend: 0x0, symName: '__ZN9once_cell3imp17OnceCell$LT$T$GT$13get_unchecked17hc651bf686f649fa8E', symObjAddr: 0x5074, symBinAddr: 0x10B88, symSize: 0xC0 }
  - { offset: 0x5D135, size: 0x8, addend: 0x0, symName: '__ZN9once_cell3imp17OnceCell$LT$T$GT$14is_initialized17h4e63c905c1d91509E', symObjAddr: 0x5134, symBinAddr: 0x10C48, symSize: 0x30 }
  - { offset: 0x5D160, size: 0x8, addend: 0x0, symName: '__ZN9once_cell3imp17OnceCell$LT$T$GT$14is_initialized17h6514f46731c33bfdE', symObjAddr: 0x5164, symBinAddr: 0x10C78, symSize: 0x30 }
  - { offset: 0x5E616, size: 0x8, addend: 0x0, symName: '__ZN4core3ptr9const_ptr33_$LT$impl$u20$$BP$const$u20$T$GT$20offset_from_unsigned18precondition_check17hc8bcd6608b8389e6E', symObjAddr: 0x120, symBinAddr: 0x10CA8, symSize: 0x60 }
  - { offset: 0x5E6FF, size: 0x8, addend: 0x0, symName: '__ZN4core3ptr9const_ptr33_$LT$impl$u20$$BP$const$u20$T$GT$6offset18precondition_check17h285628e7b70896ffE', symObjAddr: 0x180, symBinAddr: 0x10D08, symSize: 0xC4 }
  - { offset: 0x5E8F8, size: 0x8, addend: 0x0, symName: '__ZN4core3ptr9const_ptr33_$LT$impl$u20$$BP$const$u20$T$GT$7is_null17h7fce1ca4363686b7E', symObjAddr: 0x244, symBinAddr: 0x10DCC, symSize: 0x18 }
  - { offset: 0x5EEE6, size: 0x8, addend: 0x0, symName: __ZN4core5alloc6layout6Layout25from_size_align_unchecked18precondition_check17h25b4f78125908e17E, symObjAddr: 0x29C, symBinAddr: 0x10DE4, symSize: 0x70 }
  - { offset: 0x600F1, size: 0x8, addend: 0x0, symName: __ZN5alloc3fmt6format17h60093697e47412eeE, symObjAddr: 0xD00, symBinAddr: 0x10E80, symSize: 0xD8 }
  - { offset: 0x601A5, size: 0x8, addend: 0x0, symName: '__ZN5alloc3fmt6format28_$u7b$$u7b$closure$u7d$$u7d$17heeec68a3d35356deE', symObjAddr: 0xDD8, symBinAddr: 0x10F58, symSize: 0x30 }
  - { offset: 0x6051F, size: 0x8, addend: 0x0, symName: __ZN4pyo35impl_8pymodule9ModuleDef16init_multi_phase17h2fd690e044436000E, symObjAddr: 0xCD4, symBinAddr: 0x10E54, symSize: 0x2C }
  - { offset: 0x6068B, size: 0x8, addend: 0x0, symName: '__ZN104_$LT$core..ops..index_range..IndexRange$u20$as$u20$core..slice..index..SliceIndex$LT$$u5b$T$u5d$$GT$$GT$17get_unchecked_mut18precondition_check17h716c1d3fd06dbcc7E', symObjAddr: 0x0, symBinAddr: 0x10F88, symSize: 0x60 }
  - { offset: 0x617A7, size: 0x8, addend: 0x0, symName: __ZN4core9panicking13assert_failed17h8c5d3e4415879e1dE, symObjAddr: 0x1858, symBinAddr: 0x4ADDC, symSize: 0x54 }
  - { offset: 0x61810, size: 0x8, addend: 0x0, symName: __ZN4core9panicking13panic_display17hed644dda2c855467E, symObjAddr: 0x18AC, symBinAddr: 0x116F4, symSize: 0x5C }
  - { offset: 0x618D1, size: 0x8, addend: 0x0, symName: '__ZN104_$LT$core..ops..index_range..IndexRange$u20$as$u20$core..slice..index..SliceIndex$LT$$u5b$T$u5d$$GT$$GT$17get_unchecked_mut18precondition_check17h716c1d3fd06dbcc7E', symObjAddr: 0x0, symBinAddr: 0x10F88, symSize: 0x60 }
  - { offset: 0x61930, size: 0x8, addend: 0x0, symName: '__ZN75_$LT$usize$u20$as$u20$core..slice..index..SliceIndex$LT$$u5b$T$u5d$$GT$$GT$13get_unchecked18precondition_check17h82223c9d47ed6d77E', symObjAddr: 0x3328, symBinAddr: 0x117C8, symSize: 0x60 }
  - { offset: 0x61ADD, size: 0x8, addend: 0x0, symName: '__ZN110_$LT$core..iter..adapters..enumerate..Enumerate$LT$I$GT$$u20$as$u20$core..iter..traits..iterator..Iterator$GT$4next17hc43777569e3af859E', symObjAddr: 0x2AC, symBinAddr: 0x10FE8, symSize: 0xEC }
  - { offset: 0x61BC3, size: 0x8, addend: 0x0, symName: '__ZN110_$LT$core..iter..adapters..enumerate..Enumerate$LT$I$GT$$u20$as$u20$core..iter..traits..iterator..Iterator$GT$4next17he137a0030f576c35E', symObjAddr: 0x398, symBinAddr: 0x110D4, symSize: 0xEC }
  - { offset: 0x61D0F, size: 0x8, addend: 0x0, symName: '__ZN63_$LT$I$u20$as$u20$core..iter..traits..collect..IntoIterator$GT$9into_iter17h312151e1392a2bdfE', symObjAddr: 0x31A0, symBinAddr: 0x117A0, symSize: 0x14 }
  - { offset: 0x61D46, size: 0x8, addend: 0x0, symName: '__ZN63_$LT$I$u20$as$u20$core..iter..traits..collect..IntoIterator$GT$9into_iter17haec3b2b13323f1a9E', symObjAddr: 0x31B4, symBinAddr: 0x117B4, symSize: 0x14 }
  - { offset: 0x622C5, size: 0x8, addend: 0x0, symName: '__ZN4core3fmt8builders11DebugStruct10field_with28_$u7b$$u7b$closure$u7d$$u7d$17hd9b73b94c8324bdbE', symObjAddr: 0xD50, symBinAddr: 0x113A0, symSize: 0x354 }
  - { offset: 0x640B3, size: 0x8, addend: 0x0, symName: '__ZN5alloc3str56_$LT$impl$u20$alloc..borrow..ToOwned$u20$for$u20$str$GT$8to_owned17he9f3a000113bf128E', symObjAddr: 0x3100, symBinAddr: 0x11750, symSize: 0x50 }
  - { offset: 0x6434D, size: 0x8, addend: 0x0, symName: __ZN4core3fmt2rt8Argument11new_display17h1822df0e1c038157E, symObjAddr: 0x58C, symBinAddr: 0x111C0, symSize: 0x2C }
  - { offset: 0x6439F, size: 0x8, addend: 0x0, symName: __ZN4core3fmt2rt8Argument11new_display17h1efde2aa98759728E, symObjAddr: 0x5E4, symBinAddr: 0x111EC, symSize: 0x2C }
  - { offset: 0x643D7, size: 0x8, addend: 0x0, symName: __ZN4core3fmt2rt8Argument11new_display17h52f81cad13266196E, symObjAddr: 0x63C, symBinAddr: 0x11218, symSize: 0x2C }
  - { offset: 0x644F2, size: 0x8, addend: 0x0, symName: __ZN4core3fmt2rt8Argument11new_display17h7db59c3bc20992c8E, symObjAddr: 0x6EC, symBinAddr: 0x11244, symSize: 0x2C }
  - { offset: 0x64537, size: 0x8, addend: 0x0, symName: __ZN4core3fmt2rt8Argument11new_display17had2f24476dcb8698E, symObjAddr: 0x770, symBinAddr: 0x11270, symSize: 0x2C }
  - { offset: 0x64589, size: 0x8, addend: 0x0, symName: __ZN4core3fmt2rt8Argument11new_display17hd93296a384b84443E, symObjAddr: 0x7C8, symBinAddr: 0x1129C, symSize: 0x2C }
  - { offset: 0x645C1, size: 0x8, addend: 0x0, symName: __ZN4core3fmt2rt8Argument9new_debug17h6ede878532bb8973E, symObjAddr: 0x84C, symBinAddr: 0x112C8, symSize: 0x2C }
  - { offset: 0x64688, size: 0x8, addend: 0x0, symName: __ZN4core3fmt8builders11DebugStruct10field_with17h77a901710cfa7873E, symObjAddr: 0x950, symBinAddr: 0x112F4, symSize: 0xAC }
  - { offset: 0x6497E, size: 0x8, addend: 0x0, symName: '__ZN79_$LT$pyo3..types..string..PyString$u20$as$u20$pyo3..type_object..PyTypeInfo$GT$10is_type_of17ha31f3a1e541b161fE', symObjAddr: 0x825C, symBinAddr: 0x12048, symSize: 0x30 }
  - { offset: 0x649AA, size: 0x8, addend: 0x0, symName: '__ZN79_$LT$pyo3..types..string..PyString$u20$as$u20$pyo3..type_object..PyTypeInfo$GT$15type_object_raw17hb6dd2a22a8f1eeebE', symObjAddr: 0x828C, symBinAddr: 0x12078, symSize: 0x24 }
  - { offset: 0x649E6, size: 0x8, addend: 0x0, symName: '__ZN79_$LT$pyo3..types..string..PyString$u20$as$u20$pyo3..type_object..PyTypeInfo$GT$15type_object_raw28_$u7b$$u7b$closure$u7d$$u7d$17h67cdb08606b4a430E', symObjAddr: 0x82B0, symBinAddr: 0x1209C, symSize: 0x18 }
  - { offset: 0x64A55, size: 0x8, addend: 0x0, symName: '__ZN103_$LT$pyo3..instance..Bound$LT$pyo3..types..any..PyAny$GT$$u20$as$u20$pyo3..types..any..PyAnyMethods$GT$7getattr5inner17h9d83a99086c566d6E', symObjAddr: 0x11B4, symBinAddr: 0x11828, symSize: 0x6C }
  - { offset: 0x64A98, size: 0x8, addend: 0x0, symName: '__ZN103_$LT$pyo3..instance..Bound$LT$pyo3..types..any..PyAny$GT$$u20$as$u20$pyo3..types..any..PyAnyMethods$GT$7setattr5inner17h7db6eaeca598b00cE', symObjAddr: 0x1388, symBinAddr: 0x11894, symSize: 0x7C }
  - { offset: 0x64B3E, size: 0x8, addend: 0x0, symName: '__ZN81_$LT$pyo3..types..typeobject..PyType$u20$as$u20$pyo3..type_object..PyTypeInfo$GT$10is_type_of17he28c5413aa9b63e4E', symObjAddr: 0x84B8, symBinAddr: 0x120B4, symSize: 0x30 }
  - { offset: 0x64B6A, size: 0x8, addend: 0x0, symName: '__ZN81_$LT$pyo3..types..typeobject..PyType$u20$as$u20$pyo3..type_object..PyTypeInfo$GT$15type_object_raw17h2c0a6a277e27d95aE', symObjAddr: 0x84E8, symBinAddr: 0x120E4, symSize: 0x24 }
  - { offset: 0x64BA6, size: 0x8, addend: 0x0, symName: '__ZN81_$LT$pyo3..types..typeobject..PyType$u20$as$u20$pyo3..type_object..PyTypeInfo$GT$15type_object_raw28_$u7b$$u7b$closure$u7d$$u7d$17h5a27c9bba8439c49E', symObjAddr: 0x850C, symBinAddr: 0x12108, symSize: 0x18 }
  - { offset: 0x6530E, size: 0x8, addend: 0x0, symName: '__ZN79_$LT$pyo3..exceptions..PyTypeError$u20$as$u20$pyo3..type_object..PyTypeInfo$GT$15type_object_raw17h15b48bf5ef6ee5daE', symObjAddr: 0x81B0, symBinAddr: 0x11FD8, symSize: 0x24 }
  - { offset: 0x6534A, size: 0x8, addend: 0x0, symName: '__ZN79_$LT$pyo3..exceptions..PyTypeError$u20$as$u20$pyo3..type_object..PyTypeInfo$GT$15type_object_raw28_$u7b$$u7b$closure$u7d$$u7d$17h9a6afb64fe2bc1caE', symObjAddr: 0x81D4, symBinAddr: 0x11FFC, symSize: 0x4C }
  - { offset: 0x6539D, size: 0x8, addend: 0x0, symName: '__ZN83_$LT$pyo3..exceptions..PyBaseException$u20$as$u20$pyo3..type_object..PyTypeInfo$GT$15type_object_raw17h2372af06db5cdc9eE', symObjAddr: 0x8634, symBinAddr: 0x12120, symSize: 0x24 }
  - { offset: 0x653D9, size: 0x8, addend: 0x0, symName: '__ZN83_$LT$pyo3..exceptions..PyBaseException$u20$as$u20$pyo3..type_object..PyTypeInfo$GT$15type_object_raw28_$u7b$$u7b$closure$u7d$$u7d$17hc2a4a9b8fe918536E', symObjAddr: 0x8658, symBinAddr: 0x12144, symSize: 0x4C }
  - { offset: 0x6542C, size: 0x8, addend: 0x0, symName: '__ZN84_$LT$pyo3..exceptions..PyAttributeError$u20$as$u20$pyo3..type_object..PyTypeInfo$GT$15type_object_raw17h3bcd162db4879b37E', symObjAddr: 0x8714, symBinAddr: 0x12190, symSize: 0x24 }
  - { offset: 0x65468, size: 0x8, addend: 0x0, symName: '__ZN84_$LT$pyo3..exceptions..PyAttributeError$u20$as$u20$pyo3..type_object..PyTypeInfo$GT$15type_object_raw28_$u7b$$u7b$closure$u7d$$u7d$17h622f508edc0663c1E', symObjAddr: 0x8738, symBinAddr: 0x121B4, symSize: 0x4C }
  - { offset: 0x65684, size: 0x8, addend: 0x0, symName: __ZN4pyo311type_object10PyTypeInfo11type_object17h0481949d3bf37b37E, symObjAddr: 0x5204, symBinAddr: 0x11954, symSize: 0x30 }
  - { offset: 0x656C4, size: 0x8, addend: 0x0, symName: __ZN4pyo311type_object10PyTypeInfo11type_object17h397e51104127a725E, symObjAddr: 0x52C4, symBinAddr: 0x11984, symSize: 0x30 }
  - { offset: 0x65704, size: 0x8, addend: 0x0, symName: __ZN4pyo311type_object10PyTypeInfo11type_object17h54fcca3b896d4496E, symObjAddr: 0x5414, symBinAddr: 0x119B4, symSize: 0x30 }
  - { offset: 0x65744, size: 0x8, addend: 0x0, symName: __ZN4pyo311type_object10PyTypeInfo11type_object17hdfc0060dce3cca5fE, symObjAddr: 0x5654, symBinAddr: 0x119E4, symSize: 0x30 }
  - { offset: 0x65784, size: 0x8, addend: 0x0, symName: __ZN4pyo311type_object10PyTypeInfo11type_object17hf87c88c99a131051E, symObjAddr: 0x5714, symBinAddr: 0x11A14, symSize: 0x30 }
  - { offset: 0x657CA, size: 0x8, addend: 0x0, symName: '__ZN52_$LT$T$u20$as$u20$pyo3..type_object..PyTypeCheck$GT$10type_check17h18ee02a4b84ffc00E', symObjAddr: 0x7758, symBinAddr: 0x11F24, symSize: 0x24 }
  - { offset: 0x657FF, size: 0x8, addend: 0x0, symName: '__ZN52_$LT$T$u20$as$u20$pyo3..type_object..PyTypeCheck$GT$10type_check17h9418156f2c98a97dE', symObjAddr: 0x77E8, symBinAddr: 0x11F48, symSize: 0x24 }
  - { offset: 0x65834, size: 0x8, addend: 0x0, symName: '__ZN52_$LT$T$u20$as$u20$pyo3..type_object..PyTypeCheck$GT$16classinfo_object17h1e17e46daaba26a4E', symObjAddr: 0x7870, symBinAddr: 0x11F6C, symSize: 0x20 }
  - { offset: 0x65874, size: 0x8, addend: 0x0, symName: '__ZN52_$LT$T$u20$as$u20$pyo3..type_object..PyTypeCheck$GT$16classinfo_object17hcf00a7f63561f0ddE', symObjAddr: 0x78F0, symBinAddr: 0x11F8C, symSize: 0x20 }
  - { offset: 0x67925, size: 0x8, addend: 0x0, symName: '__ZN66_$LT$std..thread..id..ThreadId$u20$as$u20$core..cmp..PartialEq$GT$2eq17h9181170ccb794aa2E', symObjAddr: 0x7AC0, symBinAddr: 0x11FAC, symSize: 0x2C }
  - { offset: 0x67E05, size: 0x8, addend: 0x0, symName: __ZN4core3ffi5c_str4CStr6as_ptr17hfbc6707a3be9f3b8E, symObjAddr: 0x1EC4, symBinAddr: 0x11910, symSize: 0x18 }
  - { offset: 0x67F05, size: 0x8, addend: 0x0, symName: __ZN4pyo310exceptions11PyTypeError7new_err17h667b94186a51ccc5E, symObjAddr: 0x2200, symBinAddr: 0x11928, symSize: 0x2C }
  - { offset: 0x67F30, size: 0x8, addend: 0x0, symName: __ZN4pyo35types10typeobject6PyType22from_borrowed_type_ptr17hde912628ad70df30E, symObjAddr: 0x5960, symBinAddr: 0x11A44, symSize: 0x34 }
  - { offset: 0x67F7F, size: 0x8, addend: 0x0, symName: __ZN4pyo35types6string8PyString3new17h4c8e3a7419fbd986E, symObjAddr: 0x68D8, symBinAddr: 0x11A78, symSize: 0x68 }
  - { offset: 0x67FF4, size: 0x8, addend: 0x0, symName: __ZN4pyo35types6string8PyString6intern17h6a6933b4ec6c3ed1E, symObjAddr: 0x6940, symBinAddr: 0x11AE0, symSize: 0x8C }
  - { offset: 0x680A0, size: 0x8, addend: 0x0, symName: __ZN4pyo36marker6Python15assume_attached17h6116158e1744ef83E, symObjAddr: 0x6DC4, symBinAddr: 0x11B6C, symSize: 0x4 }
  - { offset: 0x680C0, size: 0x8, addend: 0x0, symName: __ZN4pyo36marker6Python6attach17h28cdc83db1222575E, symObjAddr: 0x70D0, symBinAddr: 0x11B70, symSize: 0xF4 }
  - { offset: 0x68126, size: 0x8, addend: 0x0, symName: __ZN4pyo36marker6Python6attach17h95e0f01d4bb6649cE, symObjAddr: 0x71C4, symBinAddr: 0x11C64, symSize: 0xE8 }
  - { offset: 0x68171, size: 0x8, addend: 0x0, symName: __ZN4pyo36marker6Python6attach17had78b7d8f869de3fE, symObjAddr: 0x7388, symBinAddr: 0x11D4C, symSize: 0xE8 }
  - { offset: 0x681E3, size: 0x8, addend: 0x0, symName: __ZN4pyo36marker6Python6detach17h6c8e5fe0681eb117E, symObjAddr: 0x7558, symBinAddr: 0x11E34, symSize: 0xB0 }
  - { offset: 0x6825E, size: 0x8, addend: 0x0, symName: __ZN4pyo36marker6Python6import17hb4abaf5d1afa2ec2E, symObjAddr: 0x7608, symBinAddr: 0x11EE4, symSize: 0x24 }
  - { offset: 0x682A5, size: 0x8, addend: 0x0, symName: __ZN4pyo36marker6Python8get_type17hbb766315123fa807E, symObjAddr: 0x76A0, symBinAddr: 0x11F08, symSize: 0x1C }
  - { offset: 0x68567, size: 0x8, addend: 0x0, symName: '__ZN3std3sys4sync5mutex7pthread5Mutex3get28_$u7b$$u7b$closure$u7d$$u7d$17ha3aa4bc951ce5e49E', symObjAddr: 0x954, symBinAddr: 0x12260, symSize: 0xF4 }
  - { offset: 0x68741, size: 0x8, addend: 0x0, symName: '__ZN84_$LT$std..sys..sync..once_box..OnceBox$LT$T$GT$$u20$as$u20$core..ops..drop..Drop$GT$4drop17h861ba44366c1097fE', symObjAddr: 0x7E0C, symBinAddr: 0x14374, symSize: 0x74 }
  - { offset: 0x68EF9, size: 0x8, addend: 0x0, symName: __ZN5alloc6borrow3Cow8Borrowed17hfb0c382504224a91E, symObjAddr: 0x762C, symBinAddr: 0x13F4C, symSize: 0x2C }
  - { offset: 0x68F31, size: 0x8, addend: 0x0, symName: '__ZN71_$LT$alloc..borrow..Cow$LT$B$GT$$u20$as$u20$core..ops..deref..Deref$GT$5deref17h021ac96b33d41469E', symObjAddr: 0x7878, symBinAddr: 0x13FFC, symSize: 0x78 }
  - { offset: 0x68F8C, size: 0x8, addend: 0x0, symName: '__ZN66_$LT$alloc..borrow..Cow$LT$B$GT$$u20$as$u20$core..fmt..Display$GT$3fmt17h76e47a42caad8973E', symObjAddr: 0x77F4, symBinAddr: 0x13F78, symSize: 0x84 }
  - { offset: 0x6A962, size: 0x8, addend: 0x0, symName: '__ZN50_$LT$T$u20$as$u20$core..convert..Into$LT$U$GT$$GT$4into17hab2336ce0fd74a94E', symObjAddr: 0x7420, symBinAddr: 0x13E3C, symSize: 0x14 }
  - { offset: 0x6AF50, size: 0x8, addend: 0x0, symName: '__ZN44_$LT$$RF$T$u20$as$u20$core..fmt..Display$GT$3fmt17ha095fa29410a77fdE', symObjAddr: 0xBD4, symBinAddr: 0x12408, symSize: 0x30 }
  - { offset: 0x6B0B3, size: 0x8, addend: 0x0, symName: __ZN4core4iter6traits8iterator8Iterator9enumerate17h2ebcc49abe4c3815E, symObjAddr: 0xDB8, symBinAddr: 0x12438, symSize: 0x18 }
  - { offset: 0x6B0E4, size: 0x8, addend: 0x0, symName: __ZN4core4iter6traits8iterator8Iterator9enumerate17h2ebcc49abe4c3815E, symObjAddr: 0xDB8, symBinAddr: 0x12438, symSize: 0x18 }
  - { offset: 0x6B838, size: 0x8, addend: 0x0, symName: __ZN8pyo3_ffi7cpython11tupleobject16PyTuple_GET_ITEM17hc4bad0ce826fabddE, symObjAddr: 0x8890, symBinAddr: 0x14418, symSize: 0x10C }
  - { offset: 0x6B897, size: 0x8, addend: 0x0, symName: __ZN8pyo3_ffi7cpython11tupleobject16PyTuple_GET_SIZE17h77d292594c19cbabE, symObjAddr: 0x899C, symBinAddr: 0x14524, symSize: 0x24 }
  - { offset: 0x6B8C3, size: 0x8, addend: 0x0, symName: __ZN8pyo3_ffi7cpython11tupleobject16PyTuple_SET_ITEM17hd7aecc49b9e910a2E, symObjAddr: 0x89C0, symBinAddr: 0x14548, symSize: 0x118 }
  - { offset: 0x6BB68, size: 0x8, addend: 0x0, symName: __ZN8pyo3_ffi11tupleobject13PyTuple_Check17hf6127d6c07bdbeffE, symObjAddr: 0x7E80, symBinAddr: 0x143E8, symSize: 0x30 }
  - { offset: 0x6C0A3, size: 0x8, addend: 0x0, symName: '__ZN4pyo33err9err_state10PyErrState10normalized28_$u7b$$u7b$closure$u7d$$u7d$17h6a9d9fb2a9d28431E', symObjAddr: 0x18F0, symBinAddr: 0x126B8, symSize: 0xC }
  - { offset: 0x6C0D4, size: 0x8, addend: 0x0, symName: '__ZN4pyo33err9err_state10PyErrState15make_normalized28_$u7b$$u7b$closure$u7d$$u7d$17h8fff0208f1e47220E', symObjAddr: 0x1DE0, symBinAddr: 0x127C4, symSize: 0x34 }
  - { offset: 0x6C103, size: 0x8, addend: 0x0, symName: '__ZN4pyo33err9err_state10PyErrState15make_normalized28_$u7b$$u7b$closure$u7d$$u7d$28_$u7b$$u7b$closure$u7d$$u7d$17ha8b259358b0c5179E', symObjAddr: 0x1E14, symBinAddr: 0x127F8, symSize: 0x360 }
  - { offset: 0x6C1B5, size: 0x8, addend: 0x0, symName: '__ZN4pyo33err9err_state10PyErrState15make_normalized28_$u7b$$u7b$closure$u7d$$u7d$28_$u7b$$u7b$closure$u7d$$u7d$28_$u7b$$u7b$closure$u7d$$u7d$17h8b78f8f933f6de0dE', symObjAddr: 0x2174, symBinAddr: 0x12B58, symSize: 0x38 }
  - { offset: 0x6C3F4, size: 0x8, addend: 0x0, symName: __ZN4pyo33err9err_state10raise_lazy17h29da4c143c52f880E, symObjAddr: 0x2294, symBinAddr: 0x12C78, symSize: 0x130 }
  - { offset: 0x6C488, size: 0x8, addend: 0x0, symName: '__ZN4pyo33err9err_state20PyErrStateNormalized10ptraceback28_$u7b$$u7b$closure$u7d$$u7d$17h6061594b390c561dE', symObjAddr: 0x2504, symBinAddr: 0x12EE8, symSize: 0x24 }
  - { offset: 0x6C4CB, size: 0x8, addend: 0x0, symName: '__ZN4pyo33err9err_state20PyErrStateNormalized4take28_$u7b$$u7b$closure$u7d$$u7d$17h912b3e59de5131aaE', symObjAddr: 0x2578, symBinAddr: 0x12F30, symSize: 0x28 }
  - { offset: 0x6C7D5, size: 0x8, addend: 0x0, symName: '__ZN107_$LT$pyo3..instance..Bound$LT$pyo3..types..list..PyList$GT$$u20$as$u20$pyo3..types..list..PyListMethods$GT$6append5inner17ha7e3dfabba03e73eE', symObjAddr: 0x330, symBinAddr: 0x12200, symSize: 0x60 }
  - { offset: 0x6C843, size: 0x8, addend: 0x0, symName: '__ZN75_$LT$pyo3..types..list..PyList$u20$as$u20$pyo3..type_object..PyTypeInfo$GT$10is_type_of17hbf4ddf1641cd4822E', symObjAddr: 0x7A38, symBinAddr: 0x14074, symSize: 0x30 }
  - { offset: 0x6C86F, size: 0x8, addend: 0x0, symName: '__ZN75_$LT$pyo3..types..list..PyList$u20$as$u20$pyo3..type_object..PyTypeInfo$GT$15type_object_raw17h7f992350c14c0538E', symObjAddr: 0x7A68, symBinAddr: 0x140A4, symSize: 0x24 }
  - { offset: 0x6C8AB, size: 0x8, addend: 0x0, symName: '__ZN75_$LT$pyo3..types..list..PyList$u20$as$u20$pyo3..type_object..PyTypeInfo$GT$15type_object_raw28_$u7b$$u7b$closure$u7d$$u7d$17h4327c9594a1e957fE', symObjAddr: 0x7A8C, symBinAddr: 0x140C8, symSize: 0x18 }
  - { offset: 0x6CA16, size: 0x8, addend: 0x0, symName: __ZN4pyo35types5tuple16array_into_tuple17he8f6c681664fb5eeE, symObjAddr: 0x4398, symBinAddr: 0x1313C, symSize: 0x200 }
  - { offset: 0x6CB2F, size: 0x8, addend: 0x0, symName: '__ZN4pyo35types5tuple74_$LT$impl$u20$pyo3..conversion..IntoPyObject$u20$for$u20$$LP$T0$C$$RP$$GT$13into_pyobject17h370bc4c6d0d67158E', symObjAddr: 0x6340, symBinAddr: 0x133E4, symSize: 0xCC }
  - { offset: 0x6CBA9, size: 0x8, addend: 0x0, symName: '__ZN77_$LT$pyo3..types..tuple..PyTuple$u20$as$u20$pyo3..type_object..PyTypeInfo$GT$10is_type_of17h691213029297347eE', symObjAddr: 0x7C14, symBinAddr: 0x14250, symSize: 0x30 }
  - { offset: 0x6CBD5, size: 0x8, addend: 0x0, symName: '__ZN77_$LT$pyo3..types..tuple..PyTuple$u20$as$u20$pyo3..type_object..PyTypeInfo$GT$15type_object_raw17h6ee11918d064cd07E', symObjAddr: 0x7C44, symBinAddr: 0x14280, symSize: 0x24 }
  - { offset: 0x6CC11, size: 0x8, addend: 0x0, symName: '__ZN77_$LT$pyo3..types..tuple..PyTuple$u20$as$u20$pyo3..type_object..PyTypeInfo$GT$15type_object_raw28_$u7b$$u7b$closure$u7d$$u7d$17haab87ff2683725beE', symObjAddr: 0x7C68, symBinAddr: 0x142A4, symSize: 0x18 }
  - { offset: 0x6CC60, size: 0x8, addend: 0x0, symName: '__ZN97_$LT$pyo3..types..tuple..BoundTupleIterator$u20$as$u20$core..iter..traits..iterator..Iterator$GT$4next17h4827e974848c7190E', symObjAddr: 0x8D64, symBinAddr: 0x14660, symSize: 0xD0 }
  - { offset: 0x6CCE8, size: 0x8, addend: 0x0, symName: '__ZN4pyo38internal5state12ATTACH_COUNT29_$u7b$$u7b$constant$u7d$$u7d$28_$u7b$$u7b$closure$u7d$$u7d$23__RUST_STD_INTERNAL_VAL17h780a957fdd4a2484E', symObjAddr: 0xB66C, symBinAddr: 0x74DC8, symSize: 0x0 }
  - { offset: 0x6CCF7, size: 0x8, addend: 0x0, symName: '__ZN4pyo38internal5state12ATTACH_COUNT29_$u7b$$u7b$constant$u7d$$u7d$28_$u7b$$u7b$closure$u7d$$u7d$17ha052a7689b492abfE', symObjAddr: 0x6B10, symBinAddr: 0x13650, symSize: 0x30 }
  - { offset: 0x6CD3F, size: 0x8, addend: 0x0, symName: __ZN4pyo38internal5state4POOL17hcaa7f50d93de0ee8E, symObjAddr: 0xB6A0, symBinAddr: 0x74428, symSize: 0x0 }
  - { offset: 0x6CE68, size: 0x8, addend: 0x0, symName: '__ZN4pyo38internal5state11AttachGuard10try_attach28_$u7b$$u7b$closure$u7d$$u7d$17he5ceb3591cef5a57E', symObjAddr: 0x699C, symBinAddr: 0x1356C, symSize: 0x24 }
  - { offset: 0x6CEEE, size: 0x8, addend: 0x0, symName: '__ZN4pyo38internal5state13SuspendAttach3new28_$u7b$$u7b$closure$u7d$$u7d$17h0955fc5e5e63f810E', symObjAddr: 0x7114, symBinAddr: 0x13C54, symSize: 0x28 }
  - { offset: 0x6CF7A, size: 0x8, addend: 0x0, symName: __ZN4pyo38internal5state15register_decref17hb3fa34941b551deeE, symObjAddr: 0x720C, symBinAddr: 0x13C7C, symSize: 0x2C }
  - { offset: 0x6CFA9, size: 0x8, addend: 0x0, symName: '__ZN4pyo38internal5state18thread_is_attached28_$u7b$$u7b$closure$u7d$$u7d$17hfc3922e64c5b4bc1E', symObjAddr: 0x728C, symBinAddr: 0x13CA8, symSize: 0x2C }
  - { offset: 0x6CFEC, size: 0x8, addend: 0x0, symName: '__ZN4pyo38internal5state22decrement_attach_count28_$u7b$$u7b$closure$u7d$$u7d$17h069e2e0d69f76dadE', symObjAddr: 0x72B8, symBinAddr: 0x13CD4, symSize: 0x8C }
  - { offset: 0x6D044, size: 0x8, addend: 0x0, symName: '__ZN4pyo38internal5state22increment_attach_count28_$u7b$$u7b$closure$u7d$$u7d$17h5ed44e734292d6ddE', symObjAddr: 0x7344, symBinAddr: 0x13D60, symSize: 0x74 }
  - { offset: 0x6D097, size: 0x8, addend: 0x0, symName: __ZN4pyo38internal5state24drop_deferred_references17h201981baa8100fbaE, symObjAddr: 0x73B8, symBinAddr: 0x13DD4, symSize: 0x4C }
  - { offset: 0x6D0E7, size: 0x8, addend: 0x0, symName: __ZN4pyo38internal5state8get_pool17haa1d5f9024fb8e53E, symObjAddr: 0x7404, symBinAddr: 0x13E20, symSize: 0x1C }
  - { offset: 0x6D116, size: 0x8, addend: 0x0, symName: '__ZN76_$LT$pyo3..internal..state..AttachGuard$u20$as$u20$core..ops..drop..Drop$GT$4drop17h9fad835972ae69e6E', symObjAddr: 0x7AA4, symBinAddr: 0x140E0, symSize: 0x5C }
  - { offset: 0x6D175, size: 0x8, addend: 0x0, symName: '__ZN78_$LT$pyo3..internal..state..SuspendAttach$u20$as$u20$core..ops..drop..Drop$GT$4drop17h24f4a9f93158ba16E', symObjAddr: 0x7C80, symBinAddr: 0x142BC, symSize: 0x80 }
  - { offset: 0x6D1C0, size: 0x8, addend: 0x0, symName: '__ZN78_$LT$pyo3..internal..state..SuspendAttach$u20$as$u20$core..ops..drop..Drop$GT$4drop28_$u7b$$u7b$closure$u7d$$u7d$17h8d43b586e44b5b4aE', symObjAddr: 0x7D00, symBinAddr: 0x1433C, symSize: 0x38 }
  - { offset: 0x6D218, size: 0x8, addend: 0x0, symName: '__ZN77_$LT$pyo3..panic..PanicException$u20$as$u20$pyo3..type_object..PyTypeInfo$GT$15type_object_raw11TYPE_OBJECT17h88d5296b89823e3dE', symObjAddr: 0x3D008, symBinAddr: 0x74ED0, symSize: 0x0 }
  - { offset: 0x6D225, size: 0x8, addend: 0x0, symName: '__ZN77_$LT$pyo3..panic..PanicException$u20$as$u20$pyo3..type_object..PyTypeInfo$GT$15type_object_raw28_$u7b$$u7b$closure$u7d$$u7d$17h5825abe0bbed4f9bE', symObjAddr: 0x7B34, symBinAddr: 0x14170, symSize: 0xE0 }
  - { offset: 0x6D270, size: 0x8, addend: 0x0, symName: '__ZN77_$LT$pyo3..panic..PanicException$u20$as$u20$pyo3..type_object..PyTypeInfo$GT$15type_object_raw17h706cdfb3262b6e1dE', symObjAddr: 0x7B00, symBinAddr: 0x1413C, symSize: 0x34 }
  - { offset: 0x6D343, size: 0x8, addend: 0x0, symName: __ZN4pyo35impl_10trampoline33panic_result_into_callback_output17h72374b3639e8d522E, symObjAddr: 0x2DA8, symBinAddr: 0x12F84, symSize: 0x12C }
  - { offset: 0x6D457, size: 0x8, addend: 0x0, symName: __ZN4pyo311type_object10PyTypeInfo11type_object17h06f64aec01c6c974E, symObjAddr: 0x15F8, symBinAddr: 0x12450, symSize: 0x30 }
  - { offset: 0x6D497, size: 0x8, addend: 0x0, symName: __ZN4pyo311type_object10PyTypeInfo11type_object17hab632f05635f6989E, symObjAddr: 0x16B8, symBinAddr: 0x12480, symSize: 0x30 }
  - { offset: 0x6D4D7, size: 0x8, addend: 0x0, symName: __ZN4pyo311type_object10PyTypeInfo11type_object17hb57c4a4b42967223E, symObjAddr: 0x16E8, symBinAddr: 0x124B0, symSize: 0x30 }
  - { offset: 0x6D517, size: 0x8, addend: 0x0, symName: __ZN4pyo311type_object10PyTypeInfo16is_exact_type_of17h997266f5e5b536f5E, symObjAddr: 0x1718, symBinAddr: 0x124E0, symSize: 0x58 }
  - { offset: 0x6D577, size: 0x8, addend: 0x0, symName: '__ZN52_$LT$T$u20$as$u20$pyo3..type_object..PyTypeCheck$GT$10type_check17h27efaed1ffc8aefcE', symObjAddr: 0x747C, symBinAddr: 0x13E50, symSize: 0x24 }
  - { offset: 0x6D5AC, size: 0x8, addend: 0x0, symName: '__ZN52_$LT$T$u20$as$u20$pyo3..type_object..PyTypeCheck$GT$10type_check17hb95c1ab8dd4c02b9E', symObjAddr: 0x74C4, symBinAddr: 0x13E74, symSize: 0x24 }
  - { offset: 0x6D5E1, size: 0x8, addend: 0x0, symName: '__ZN52_$LT$T$u20$as$u20$pyo3..type_object..PyTypeCheck$GT$16classinfo_object17h1906384c2de8a937E', symObjAddr: 0x7508, symBinAddr: 0x13E98, symSize: 0x20 }
  - { offset: 0x6D621, size: 0x8, addend: 0x0, symName: '__ZN52_$LT$T$u20$as$u20$pyo3..type_object..PyTypeCheck$GT$16classinfo_object17h4904a2e0d242b9c6E', symObjAddr: 0x7548, symBinAddr: 0x13EB8, symSize: 0x20 }
  - { offset: 0x6D904, size: 0x8, addend: 0x0, symName: '__ZN3std3sys4sync8once_box16OnceBox$LT$T$GT$10initialize17h55047fc056fa974bE', symObjAddr: 0xA48, symBinAddr: 0x4AE30, symSize: 0xD8 }
  - { offset: 0x6DADB, size: 0x8, addend: 0x0, symName: '__ZN3std3sys4sync8once_box16OnceBox$LT$T$GT$11get_or_init17h3484f6e6aaa75028E', symObjAddr: 0xB20, symBinAddr: 0x12354, symSize: 0xB4 }
  - { offset: 0x6DC67, size: 0x8, addend: 0x0, symName: __ZN4pyo33err9err_state10PyErrState10from_inner17h648fdee320e7302fE, symObjAddr: 0x1770, symBinAddr: 0x12538, symSize: 0xF0 }
  - { offset: 0x6DCA8, size: 0x8, addend: 0x0, symName: __ZN4pyo33err9err_state10PyErrState10normalized17h7c4cff34bdc66bc1E, symObjAddr: 0x1860, symBinAddr: 0x12628, symSize: 0x90 }
  - { offset: 0x6DCF9, size: 0x8, addend: 0x0, symName: __ZN4pyo33err9err_state10PyErrState13as_normalized17h03e4c1853a2dd200E, symObjAddr: 0x18FC, symBinAddr: 0x126C4, symSize: 0x100 }
  - { offset: 0x6DD94, size: 0x8, addend: 0x0, symName: __ZN4pyo33err9err_state10PyErrState15make_normalized17hcea2d34f9ac2351bE, symObjAddr: 0x1B10, symBinAddr: 0x4AF08, symSize: 0x2D0 }
  - { offset: 0x6DE56, size: 0x8, addend: 0x0, symName: __ZN4pyo33err9err_state10PyErrState4lazy17h4b421d168a4d7f64E, symObjAddr: 0x21AC, symBinAddr: 0x12B90, symSize: 0x3C }
  - { offset: 0x6DE94, size: 0x8, addend: 0x0, symName: __ZN4pyo33err9err_state10PyErrState7restore17hec04a6c139f34beeE, symObjAddr: 0x21E8, symBinAddr: 0x12BCC, symSize: 0xAC }
  - { offset: 0x6DEED, size: 0x8, addend: 0x0, symName: __ZN4pyo33err9err_state15PyErrStateInner7restore17h92cdd7abdf0c1d30E, symObjAddr: 0x23C4, symBinAddr: 0x12DA8, symSize: 0x84 }
  - { offset: 0x6DF68, size: 0x8, addend: 0x0, symName: __ZN4pyo33err9err_state15PyErrStateInner9normalize17h85fc33f195bdcd9dE, symObjAddr: 0x2448, symBinAddr: 0x12E2C, symSize: 0x8C }
  - { offset: 0x6DFE3, size: 0x8, addend: 0x0, symName: __ZN4pyo33err9err_state20PyErrStateNormalized10ptraceback17h97a788b44a5410dfE, symObjAddr: 0x24D4, symBinAddr: 0x12EB8, symSize: 0x30 }
  - { offset: 0x6E01E, size: 0x8, addend: 0x0, symName: __ZN4pyo33err9err_state20PyErrStateNormalized4take17h281185f909bb9fb3E, symObjAddr: 0x2554, symBinAddr: 0x12F0C, symSize: 0x24 }
  - { offset: 0x6E04B, size: 0x8, addend: 0x0, symName: __ZN4pyo33err9err_state20PyErrStateNormalized5ptype17h1fe1d378c3ef7f49E, symObjAddr: 0x25A0, symBinAddr: 0x12F58, symSize: 0x2C }
  - { offset: 0x6E0B4, size: 0x8, addend: 0x0, symName: __ZN4pyo35panic14PanicException18from_panic_payload17h8d1a8985de7b6151E, symObjAddr: 0x3734, symBinAddr: 0x4B1D8, symSize: 0x144 }
  - { offset: 0x6E113, size: 0x8, addend: 0x0, symName: __ZN4pyo35panic14PanicException7new_err17h322fda83b40b1374E, symObjAddr: 0x3878, symBinAddr: 0x130B0, symSize: 0x28 }
  - { offset: 0x6E151, size: 0x8, addend: 0x0, symName: __ZN4pyo35panic14PanicException7new_err17h7698c670b59f9aceE, symObjAddr: 0x38A0, symBinAddr: 0x130D8, symSize: 0x34 }
  - { offset: 0x6E18A, size: 0x8, addend: 0x0, symName: __ZN4pyo35types4list6PyList5empty17h8200049b1d1fc473E, symObjAddr: 0x4170, symBinAddr: 0x1310C, symSize: 0x30 }
  - { offset: 0x6E1B7, size: 0x8, addend: 0x0, symName: __ZN4pyo35types5tuple18BoundTupleIterator3new17h2a01004fa36076c9E, symObjAddr: 0x50B4, symBinAddr: 0x1333C, symSize: 0x78 }
  - { offset: 0x6E212, size: 0x8, addend: 0x0, symName: __ZN4pyo35types5tuple21BorrowedTupleIterator8get_item17hdd503badcd34d5ccE, symObjAddr: 0x5238, symBinAddr: 0x133B4, symSize: 0x30 }
  - { offset: 0x6E2AC, size: 0x8, addend: 0x0, symName: __ZN4pyo38internal5state11AttachGuard10try_attach17h0ce538490e4f6684E, symObjAddr: 0x68E0, symBinAddr: 0x134B0, symSize: 0xBC }
  - { offset: 0x6E2EC, size: 0x8, addend: 0x0, symName: __ZN4pyo38internal5state11AttachGuard19do_attach_unchecked17h098b3e24d110b99aE, symObjAddr: 0x6A14, symBinAddr: 0x4B31C, symSize: 0x3C }
  - { offset: 0x6E331, size: 0x8, addend: 0x0, symName: __ZN4pyo38internal5state11AttachGuard6assume17h88290b410bfd3056E, symObjAddr: 0x6A50, symBinAddr: 0x13590, symSize: 0x28 }
  - { offset: 0x6E359, size: 0x8, addend: 0x0, symName: __ZN4pyo38internal5state11AttachGuard6attach17h6ed2f52e62618839E, symObjAddr: 0x6A78, symBinAddr: 0x135B8, symSize: 0x78 }
  - { offset: 0x6E38A, size: 0x8, addend: 0x0, symName: __ZN4pyo38internal5state11AttachGuard6python17h1e47c49be2546334E, symObjAddr: 0x6AF0, symBinAddr: 0x13630, symSize: 0x20 }
  - { offset: 0x6E3FC, size: 0x8, addend: 0x0, symName: __ZN4pyo38internal5state13ReferencePool15register_decref17h077a2c32b814719eE, symObjAddr: 0x6B40, symBinAddr: 0x13680, symSize: 0x128 }
  - { offset: 0x6E481, size: 0x8, addend: 0x0, symName: __ZN4pyo38internal5state13ReferencePool24drop_deferred_references17h1ec83387e5bc9673E, symObjAddr: 0x6C68, symBinAddr: 0x137A8, symSize: 0x420 }
  - { offset: 0x6E5A1, size: 0x8, addend: 0x0, symName: __ZN4pyo38internal5state13ReferencePool3new17h750810665451898fE, symObjAddr: 0x7088, symBinAddr: 0x13BC8, symSize: 0x4C }
  - { offset: 0x6E5B4, size: 0x8, addend: 0x0, symName: __ZN4pyo38internal5state13SuspendAttach3new17h3ed753428fc46ebaE, symObjAddr: 0x70D4, symBinAddr: 0x13C14, symSize: 0x40 }
  - { offset: 0x6E5E5, size: 0x8, addend: 0x0, symName: __ZN4pyo38internal5state15ForbidAttaching4bail17h575fd70bfccfb9a8E, symObjAddr: 0x71BC, symBinAddr: 0x4B358, symSize: 0x50 }
  - { offset: 0x6E608, size: 0x8, addend: 0x0, symName: '__ZN5alloc6borrow12Cow$LT$B$GT$10into_owned17ha1e8d44d54a1dcaeE', symObjAddr: 0x7588, symBinAddr: 0x13ED8, symSize: 0x74 }
  - { offset: 0x6E892, size: 0x8, addend: 0x0, symName: __ZN3std6thread6thread6Thread6unpark17h995074ece971c50cE, symObjAddr: 0x0, symBinAddr: 0x14730, symSize: 0x38 }
  - { offset: 0x6E9A2, size: 0x8, addend: 0x0, symName: __ZN4core4sync6atomic11atomic_load17h2cfa91bbc3b68264E, symObjAddr: 0x324, symBinAddr: 0x149B0, symSize: 0xF8 }
  - { offset: 0x6E9E8, size: 0x8, addend: 0x0, symName: __ZN4core4sync6atomic11atomic_load17hd5f36e44c6cbc8e6E, symObjAddr: 0x41C, symBinAddr: 0x14AA8, symSize: 0xF8 }
  - { offset: 0x6EA2E, size: 0x8, addend: 0x0, symName: __ZN4core4sync6atomic12atomic_store17h2c59e3006d67af55E, symObjAddr: 0x514, symBinAddr: 0x14BA0, symSize: 0xFC }
  - { offset: 0x6EB5C, size: 0x8, addend: 0x0, symName: __ZN4core4sync6atomic23atomic_compare_exchange17he7bc6a702cb8ece3E, symObjAddr: 0x744, symBinAddr: 0x14DD0, symSize: 0x4B4 }
  - { offset: 0x6EBF7, size: 0x8, addend: 0x0, symName: __ZN4core4sync6atomic5fence17h9774b213c2456697E, symObjAddr: 0xBF8, symBinAddr: 0x15284, symSize: 0xB0 }
  - { offset: 0x6ECF7, size: 0x8, addend: 0x0, symName: '__ZN4core3ptr100drop_in_place$LT$core..cell..Cell$LT$core..option..Option$LT$std..thread..thread..Thread$GT$$GT$$GT$17h228517467d2964e3E', symObjAddr: 0xF8, symBinAddr: 0x1479C, symSize: 0x24 }
  - { offset: 0x6ED26, size: 0x8, addend: 0x0, symName: '__ZN4core3ptr106drop_in_place$LT$core..cell..UnsafeCell$LT$core..option..Option$LT$std..thread..thread..Thread$GT$$GT$$GT$17hb90b137aa1482856E', symObjAddr: 0x11C, symBinAddr: 0x147C0, symSize: 0x24 }
  - { offset: 0x6ED55, size: 0x8, addend: 0x0, symName: '__ZN4core3ptr114drop_in_place$LT$core..pin..Pin$LT$alloc..sync..Arc$LT$std..thread..thread..Inner$C$std..alloc..System$GT$$GT$$GT$17h5cc7b8d0ea626a9eE', symObjAddr: 0x140, symBinAddr: 0x147E4, symSize: 0x24 }
  - { offset: 0x6ED84, size: 0x8, addend: 0x0, symName: '__ZN4core3ptr42drop_in_place$LT$once_cell..imp..Guard$GT$17hdfc63b1a2c6b4887E', symObjAddr: 0x164, symBinAddr: 0x14808, symSize: 0x24 }
  - { offset: 0x6EDB3, size: 0x8, addend: 0x0, symName: '__ZN4core3ptr43drop_in_place$LT$once_cell..imp..Waiter$GT$17h3b6301d7a4c6e212E', symObjAddr: 0x188, symBinAddr: 0x1482C, symSize: 0x24 }
  - { offset: 0x6EDE2, size: 0x8, addend: 0x0, symName: '__ZN4core3ptr48drop_in_place$LT$std..thread..thread..Thread$GT$17h22f07108626227c7E', symObjAddr: 0x1AC, symBinAddr: 0x14850, symSize: 0x24 }
  - { offset: 0x6EE11, size: 0x8, addend: 0x0, symName: '__ZN4core3ptr76drop_in_place$LT$core..option..Option$LT$std..thread..thread..Thread$GT$$GT$17h67ee66490de81e67E', symObjAddr: 0x1D0, symBinAddr: 0x14874, symSize: 0x44 }
  - { offset: 0x6EE87, size: 0x8, addend: 0x0, symName: '__ZN4core3ptr7mut_ptr31_$LT$impl$u20$$BP$mut$u20$T$GT$7is_null17he49d2c98b761c7b5E', symObjAddr: 0x214, symBinAddr: 0x148B8, symSize: 0x18 }
  - { offset: 0x6EF1B, size: 0x8, addend: 0x0, symName: '__ZN4core3ptr92drop_in_place$LT$alloc..sync..Arc$LT$std..thread..thread..Inner$C$std..alloc..System$GT$$GT$17h661234cb7c95feb0E', symObjAddr: 0x22C, symBinAddr: 0x148D0, symSize: 0x24 }
  - { offset: 0x6F03B, size: 0x8, addend: 0x0, symName: '__ZN72_$LT$core..option..Option$LT$T$GT$$u20$as$u20$core..default..Default$GT$7default17h3ff25d5e199526d3E', symObjAddr: 0xF88, symBinAddr: 0x15614, symSize: 0x8 }
  - { offset: 0x6F3CD, size: 0x8, addend: 0x0, symName: '__ZN4core3ops8function5impls79_$LT$impl$u20$core..ops..function..FnMut$LT$A$GT$$u20$for$u20$$RF$mut$u20$F$GT$8call_mut17h01be55feae1ed0b4E', symObjAddr: 0xC4, symBinAddr: 0x14768, symSize: 0x34 }
  - { offset: 0x6F5B1, size: 0x8, addend: 0x0, symName: '__ZN71_$LT$alloc..sync..Arc$LT$T$C$A$GT$$u20$as$u20$core..ops..drop..Drop$GT$4drop17hd17c83b0465f883fE', symObjAddr: 0xF0C, symBinAddr: 0x15598, symSize: 0x7C }
  - { offset: 0x6F8FF, size: 0x8, addend: 0x0, symName: __ZN3std6thread6thread6Thread6unpark17h995074ece971c50cE, symObjAddr: 0x0, symBinAddr: 0x14730, symSize: 0x38 }
  - { offset: 0x6FA66, size: 0x8, addend: 0x0, symName: '__ZN63_$LT$once_cell..imp..Guard$u20$as$u20$core..ops..drop..Drop$GT$4drop17ha42acd9291603102E', symObjAddr: 0xCA8, symBinAddr: 0x15334, symSize: 0x250 }
  - { offset: 0x6FB66, size: 0x8, addend: 0x0, symName: '__ZN63_$LT$once_cell..imp..Guard$u20$as$u20$core..ops..drop..Drop$GT$4drop28_$u7b$$u7b$closure$u7d$$u7d$17h5c3605ac483f69c6E', symObjAddr: 0xEF8, symBinAddr: 0x15584, symSize: 0x14 }
  - { offset: 0x6FBA5, size: 0x8, addend: 0x0, symName: __ZN9once_cell3imp18initialize_or_wait17h2084c416461734d8E, symObjAddr: 0xF90, symBinAddr: 0x1561C, symSize: 0x18C }
  - { offset: 0x6FC67, size: 0x8, addend: 0x0, symName: '__ZN9once_cell3imp18initialize_or_wait28_$u7b$$u7b$closure$u7d$$u7d$17h1510170f48121b88E', symObjAddr: 0x111C, symBinAddr: 0x157A8, symSize: 0x18 }
  - { offset: 0x6FCA5, size: 0x8, addend: 0x0, symName: __ZN9once_cell3imp4wait17h8db4cd91a49127d7E, symObjAddr: 0x1134, symBinAddr: 0x157C0, symSize: 0x1EC }
  - { offset: 0x6FD4C, size: 0x8, addend: 0x0, symName: '__ZN9once_cell3imp4wait28_$u7b$$u7b$closure$u7d$$u7d$17hce2806a7ba9bcd23E', symObjAddr: 0x1320, symBinAddr: 0x159AC, symSize: 0x14 }
  - { offset: 0x6FD82, size: 0x8, addend: 0x0, symName: '__ZN9once_cell3imp4wait28_$u7b$$u7b$closure$u7d$$u7d$17hf6a0c20b86fff680E', symObjAddr: 0x1334, symBinAddr: 0x159C0, symSize: 0x20 }
  - { offset: 0x6FDDE, size: 0x8, addend: 0x0, symName: __ZN9once_cell3imp6strict4addr17hfbfb784cb7963ec1E, symObjAddr: 0x1354, symBinAddr: 0x159E0, symSize: 0x10 }
  - { offset: 0x6FE13, size: 0x8, addend: 0x0, symName: __ZN9once_cell3imp6strict8map_addr17h7b700d13a71311bcE, symObjAddr: 0x1364, symBinAddr: 0x159F0, symSize: 0x88 }
  - { offset: 0x6FE62, size: 0x8, addend: 0x0, symName: __ZN9once_cell3imp6strict8map_addr17ha5a8c3e5354389dcE, symObjAddr: 0x13EC, symBinAddr: 0x15A78, symSize: 0x94 }
  - { offset: 0x6FEB1, size: 0x8, addend: 0x0, symName: __ZN9once_cell3imp6strict8map_addr17hc128c0f6098c6352E, symObjAddr: 0x1480, symBinAddr: 0x15B0C, symSize: 0x88 }
  - { offset: 0x6FF00, size: 0x8, addend: 0x0, symName: __ZN9once_cell3imp6strict8map_addr17heee020fb608fdc7dE, symObjAddr: 0x1508, symBinAddr: 0x15B94, symSize: 0x88 }
  - { offset: 0x6FF4F, size: 0x8, addend: 0x0, symName: __ZN9once_cell3imp6strict9with_addr17h6fce959a8643349aE, symObjAddr: 0x1590, symBinAddr: 0x15C1C, symSize: 0x64 }
  - { offset: 0x7006C, size: 0x8, addend: 0x0, symName: '__ZN4core4cell13Cell$LT$T$GT$3new17h63b18a28fdd3412eE', symObjAddr: 0x268, symBinAddr: 0x148F4, symSize: 0x14 }
  - { offset: 0x700CD, size: 0x8, addend: 0x0, symName: '__ZN4core4cell13Cell$LT$T$GT$4take17h475b2f5ac9a0b131E', symObjAddr: 0x27C, symBinAddr: 0x14908, symSize: 0x3C }
  - { offset: 0x70134, size: 0x8, addend: 0x0, symName: __ZN4core4sync6atomic10AtomicBool3new17h5279849e8f4e6178E, symObjAddr: 0x2B8, symBinAddr: 0x14944, symSize: 0x18 }
  - { offset: 0x70164, size: 0x8, addend: 0x0, symName: __ZN4core4sync6atomic10AtomicBool4load17h43819e485770cf6cE, symObjAddr: 0x2D0, symBinAddr: 0x1495C, symSize: 0x2C }
  - { offset: 0x70196, size: 0x8, addend: 0x0, symName: __ZN4core4sync6atomic10AtomicBool5store17h1c1ba1c20e4a8a56E, symObjAddr: 0x2FC, symBinAddr: 0x14988, symSize: 0x28 }
  - { offset: 0x701E4, size: 0x8, addend: 0x0, symName: '__ZN4core4sync6atomic18AtomicPtr$LT$T$GT$16compare_exchange17h148d219b902ceb0dE', symObjAddr: 0x610, symBinAddr: 0x14C9C, symSize: 0x38 }
  - { offset: 0x7024C, size: 0x8, addend: 0x0, symName: '__ZN4core4sync6atomic18AtomicPtr$LT$T$GT$4load17hc376595176899cafE', symObjAddr: 0x648, symBinAddr: 0x14CD4, symSize: 0x24 }
  - { offset: 0x702BD, size: 0x8, addend: 0x0, symName: '__ZN4core4sync6atomic18AtomicPtr$LT$T$GT$4swap17h7388aa0c4478b786E', symObjAddr: 0x66C, symBinAddr: 0x14CF8, symSize: 0xD8 }
  - { offset: 0x7066C, size: 0x8, addend: 0x0, symName: __ZN4core4sync6atomic11atomic_load17h3e944760fc036d4eE, symObjAddr: 0xA08, symBinAddr: 0x15D74, symSize: 0xF8 }
  - { offset: 0x70719, size: 0x8, addend: 0x0, symName: '__ZN4core3ptr50drop_in_place$LT$pyo3_ffi..pystate..HangThread$GT$17he083909aa86d63ceE', symObjAddr: 0x92C, symBinAddr: 0x15CC8, symSize: 0x24 }
  - { offset: 0x70752, size: 0x8, addend: 0x0, symName: '__ZN4core3ptr9const_ptr33_$LT$impl$u20$$BP$const$u20$T$GT$13is_aligned_to17h41322c7a6405abd0E', symObjAddr: 0x980, symBinAddr: 0x15CEC, symSize: 0x88 }
  - { offset: 0x707F4, size: 0x8, addend: 0x0, symName: __ZN4core3mem6forget17hb6853b0848914cbeE, symObjAddr: 0x808, symBinAddr: 0x15CBC, symSize: 0xC }
  - { offset: 0x70BDB, size: 0x8, addend: 0x0, symName: '__ZN71_$LT$pyo3_ffi..pystate..HangThread$u20$as$u20$core..ops..drop..Drop$GT$4drop17hd68c5544ece20946E', symObjAddr: 0xDB8, symBinAddr: 0x15E6C, symSize: 0x1C }
  - { offset: 0x70C04, size: 0x8, addend: 0x0, symName: __ZN8pyo3_ffi7pystate17PyGILState_Ensure17h4e3a942792c3749dE, symObjAddr: 0x10A8, symBinAddr: 0x15EFC, symSize: 0x7C }
  - { offset: 0x70C5D, size: 0x8, addend: 0x0, symName: __ZN8pyo3_ffi32_cstr_from_utf8_with_nul_checked17hda4af28b9c582f2dE, symObjAddr: 0x1034, symBinAddr: 0x15E88, symSize: 0x74 }
  - { offset: 0x70E54, size: 0x8, addend: 0x0, symName: __ZN4core3fmt9Arguments3new17h5dddc819cabf2139E, symObjAddr: 0x728, symBinAddr: 0x15C80, symSize: 0x1C }
  - { offset: 0x70E86, size: 0x8, addend: 0x0, symName: __ZN4core3fmt9Arguments8from_str17hb8e6f89d1e24d9d8E, symObjAddr: 0x744, symBinAddr: 0x15C9C, symSize: 0x20 }
...
